(lp0
S'bali_action_plan'
p1
aS'prompt_start'
p2
aS'special_climate_change_fund'
p3
aS'traditional_knowledge'
p4
aS'non-annex_i_national_communications'
p5
aS'operating_entity'
p6
aS'international_transaction_log'
p7
aS'performance_indicators'
p8
aS'social_costs'
p9
aS'definition_of_forest'
p10
aS'buenos_aires_programme_of_work'
p11
aS'building_blocks'
p12
aS'annex_i_national_communications'
p13
aS'adaptation_technologies'
p14
aS'vulnerable'
p15
aS'small_island'
p16
aS'future_commitments'
p17
aS'sustainable_forest_management'
p18
aS'climate_justice'
p19
aS'ch4'
p20
aS'spm'
p21
aS'napa'
p22
aS'fuel'
p23
aS'adaptation_fund'
p24
aS'additionality'
p25
aS'baselines'
p26
aS'privileges_and_immunities'
p27
aS'gef'
p28
aS'poverty_eradication'
p29
aS'n2o'
p30
aS'non-market_approaches'
p31
aS'food'
p32
aS'carbon_tax'
p33
aS'maritime'
p34
aS'ozone'
p35
aS'financial_mechanism'
p36
aS'surplus_assigned_amount_units'
p37
aS'long-term_action'
p38
aS'international_aviation'
p39
aS'precipitation'
p40
aS'expert_review'
p41
aS'equitable_geographic_distribution'
p42
aS'new_commitment'
p43
aS'gender'
p44
aS'length_of_the_commitment_period'
p45
aS'biomass'
p46
aS'carbon_sequestration'
p47
aS'gas-by-gas'
p48
aS'ecosystem'
p49
aS'reducing_emissions'
p50
aS'emissions_scenarios'
p51
aS'economies_in_transition'
p52
aS'extreme_event'
p53
aS'renewable_energy'
p54
aS'energy'
p55
aS'sectoral_approaches'
p56
aS'market_mechanisms'
p57
aS'loss_and_damage'
p58
aS'forest_conservation'
p59
aS'reference_levels'
p60
aS'agriculture'
p61
aS'investment'
p62
aS'350_ppm'
p63
aS'berlin_mandate'
p64
aS'funding'
p65
aS'bubble'
p66
aS'climate_finance'
p67
aS'nuclear'
p68
aS'gcf'
p69
aS'development_strategies'
p70
aS'vulnerable_countries'
p71
aS'most_vulnerable'
p72
aS'health'
p73
aS'cer'
p74
aS'reforestation'
p75
aS'innovation'
p76
aS'new_technologies'
p77
aS'1990_levels'
p78
aS'inaction'
p79
aS'emissions_inventories'
p80
aS'greenhouse_gas_emissions'
p81
aS'business'
p82
aS'biome'
p83
aS'intellectual_property_rights'
p84
aS'domestic_action'
p85
aS'emissions_trading'
p86
aS'historical_responsibility'
p87
aS'water'
p88
aS'methodological_guidance'
p89
aS'fast-start_financing'
p90
aS'poverty'
p91
aS'sink'
p92
aS'durban_platform'
p93
aS'redd'
p94
aS'land-use_change'
p95
aS'ldcs'
p96
aS'qelros'
p97
aS'mitigation_options'
p98
aS'biodiversity'
p99
aS'gap_between_commitment_periods'
p100
aS'lcd_expert_group'
p101
aS'industry'
p102
aS'transport'
p103
aS'forest_management'
p104
aS'full_costs'
p105
aS'hydrofluorocarbons'
p106
aS'cooperative_action'
p107
aS'human_rights'
p108
aS'all_gases'
p109
aS'stabilization'
p110
aS'sccf'
p111
aS'enabling_environment'
p112
aS'afforestation'
p113
aS'flexibility_mechanisms'
p114
aS'market_approaches'
p115
aS'flexibility'
p116
aS'maritime_transport'
p117
aS'sulphur_hexafluoride'
p118
aS'gwp'
p119
aS'redd+'
p120
aS'commitments_for_non-annex_i'
p121
aS'fossil_fuels'
p122
aS'global_climate_observing_system'
p123
aS'uncertainties'
p124
aS'food_security'
p125
aS'long-term_cooperation'
p126
aS'sustainable_development'
p127
aS'international_cooperation'
p128
aS'desertification'
p129
aS'adaptation_work_programme'
p130
aS'base_year'
p131
aS'perfluorocarbons'
p132
aS'trigger'
p133
aS'facilitative_branch'
p134
aS'indigenous_peoples'
p135
aS'assigned_amount_units'
p136
aS'ldc_fund'
p137
aS'dangerous_anthropogenic_interference'
p138
aS'supplementarity'
p139
aS'enforcement'
p140
aS'transportation'
p141
aS'kyoto_protocol'
p142
aS'shared_vision'
p143
aS'gas'
p144
aS'scientific_uncertainty'
p145
aS'intergovernmental_panel_on_climate_change'
p146
aS'technology_fund'
p147
aS'cdm_projects'
p148
aS'small-scale_afforestation_and_reforestation'
p149
aS'know-how'
p150
aS'financial_resources'
p151
aS'energy_efficiency'
p152
aS'adaptation_needs'
p153
aS'policies_and_measures'
p154
aS'financing_adaptation'
p155
aS'technology_transfer_mechanism'
p156
aS'women'
p157
aS'compliance_system'
p158
aS'co2'
p159
aS'leakage'
p160
aS'cdm'
p161
aS'montreal_protocol'
p162
aS'environmentally_sound_technology'
p163
aS'observing_systems'
p164
aS'importance_of_adaptation'
p165
aS'article_9'
p166
aS'climate_change_impacts'
p167
aS'eit'
p168
aS'vulnerability_and_adaptation'
p169
aS'south-south'
p170
aS'harvested_wood_products'
p171
aS'national_adaptation_programmes_of_action'
p172
aS'second_commitment_period'
p173
aS'option_c'
p174
aS'pledges_into_qelros'
p175
aS'bunker_fuels'
p176
aS'education'
p177
aS'sea_level_rise'
p178
aS'non-renewable_biomass'
p179
aS'namas'
p180
aS'emissions_trading_system'
p181
aS'additional_activities'
p182
aS'local_communities'
p183
aS'technology'
p184
aS'land_use'
p185
aS'forestry'
p186
aS'water_resources'
p187
aS'cost_effectiveness'
p188
aS'forest'
p189
aS'nitrous_oxide'
p190
aS'binding_commitments'
p191
aS'mrv'
p192
aS'development'
p193
aS'models'
p194
aS'financial_flows'
p195
aS'ica'
p196
aS'distribution_of_cdm_projects'
p197
aS'greenhouse_gas_concentrations'
p198
aS'emission'
p199
aS'lulucf'
p200
aS'mitigation_actions'
p201
aS'impact_assessments'
p202
aS'cers'
p203
aS'differentiated_responsibilities'
p204
aS'adaptive_capacity'
p205
aS'research_and_development'
p206
aS'carbon_stocks'
p207
aS'energy_security'
p208
aS'technology_development'
p209
aS'private_sector'
p210
aS'local_governments'
p211
aS'technology_transfer'
p212
aS'advers_effect_policy'
p213
aS'adaptation_actions'
p214
aS'ipcc_third/fourth_assessment_report'
p215
aS'ocean'
p216
aS'lack_of_progress'
p217
aS'adaptation_options'
p218
aS'adaptation_and_response_measures'
p219
aS'post-2012'
p220
aS'accounting_rules'
p221
aS'political_will'
p222
aS'adverse_effects/impacts'
p223
aS'nairobi_work_programme'
p224
aS'public-private'
p225
aS'hfcs'
p226
aS'forest_degradation'
p227
aS'mitigation_and_adaptation'
p228
aS''
p229
a.