(lp0
S'special_climate_change_fund'
p1
aS'non-annex_i_national_communications'
p2
aS'operating_entity'
p3
aS'napas'
p4
aS'adaptation_fund'
p5
aS'global_environment_facility'
p6
aS'financial_mechanism'
p7
aS'fund'
p8
aS'least_developed_countries'
p9
aS'special_climate_change_fund'
p10
aS'financial_resources'
p11
aS'policies_and_measures'
p12
aS'education'
p13
aS'lack_of_progress'
p14
aS'additionality'
p15
aS'baseline'
p16
aS'nuclear'
p17
aS'certified_emission_reductions'
p18
aS'domestic_action'
p19
aS'supplementarity'
p20
aS'clean_development_mechanism'
p21
aS'cers'
p22
aS'enforcement'
p23
aS'compliance_system'
p24
aS'loss_and_damage'
p25
aS'agriculture'
p26
aS'poverty'
p27
aS'sustainable_development'
p28
aS'indigenous_peoples'
p29
aS'development'
p30
aS'reducing_emissions'
p31
aS'greenhouse_gas_emissions'
p32
aS'gases'
p33
aS'co2'
p34
aS'montreal_protocol'
p35
aS'emissions'
p36
aS'differentiated_responsibilities'
p37
aS'future_commitments'
p38
aS'economies_in_transition'
p39
aS'berlin_mandate'
p40
aS'emissions_trading'
p41
aS'qelros'
p42
aS'flexibility_mechanisms'
p43
aS'flexibility'
p44
aS'base_year'
p45
aS'assigned_amount_units'
p46
aS'kyoto_protocol'
p47
aS'second_commitment_period'
p48
aS'reforestation'
p49
aS'land-use_change'
p50
aS'biodiversity'
p51
aS'forest_management'
p52
aS'afforestation'
p53
aS'desertification'
p54
aS'harvested_wood_products'
p55
aS'additional_activities'
p56
aS'land_use'
p57
aS'forestry'
p58
aS'forest'
p59
aS'lulucf'
p60
aS'global_climate_observing_system'
p61
aS'uncertainty'
p62
aS'observing_systems'
p63
aS'models'
p64
aS'greenhouse_gas_concentrations'
p65
aS'bali_action_plan'
p66
aS'sectoral_approaches'
p67
aS'market_mechanisms'
p68
aS'climate_finance'
p69
aS'green_climate_fund'
p70
aS'redd'
p71
aS'cooperative_action'
p72
aS'redd+'
p73
aS'shared_vision'
p74
aS'nationally_appropriate_mitigation_actions'
p75
aS'mrv'
p76
aS'mitigation_actions'
p77
aS'post-2012'
p78
aS'renewable_energy'
p79
aS'energy'
p80
aS'investment'
p81
aS'business'
p82
aS'intellectual_property_rights'
p83
aS'energy_efficiency'
p84
aS'technology'
p85
aS'private_sector'
p86
aS'technology_transfer'
p87
aS'fuels'
p88
aS'international_aviation'
p89
aS'bunker_fuels'
p90
aS'vulnerable'
p91
aS'small_island'
p92
aS'privileges_and_immunities'
p93
aS'nairobi_work_programme'
p94
aS'article_9'
p95
aS'mitigation_and_adaptation'
p96
a.