(lp0
S'redd_and_post-kyoto'
p1
aS'transport_sector'
p2
aS'kyoto_protocol'
p3
aS'technology_transfer_and_energy'
p4
aS'models_and_ipcc'
p5
aS'environmental_and_social_impacts'
p6
aS'cdm_and_carbon_offsets'
p7
aS'compliance_and_enforcement'
p8
aS'vulnerability_and_adaptation_actions'
p9
aS'land_use_and_forests'
p10
aS'adaptation_funding_and_equity'
p11
aS'ghg_and_emissions_measure'
p12
a.