(lp0
S'special_climate_change_fund'
p1
aS'non-annex_i_national_communications'
p2
aS'operating_entity'
p3
aS'annex_i_national_communications'
p4
aS'napa'
p5
aS'adaptation_fund'
p6
aS'gef'
p7
aS'financial_mechanism'
p8
aS'funding'
p9
aS'ldcs'
p10
aS'sccf'
p11
aS'financial_resources'
p12
aS'adaptation_needs'
p13
aS'policies_and_measures'
p14
aS'importance_of_adaptation'
p15
aS'national_adaptation_programmes_of_action'
p16
aS'education'
p17
aS'lack_of_progress'
p18
aS'prompt_start'
p19
aS'additionality'
p20
aS'baselines'
p21
aS'nuclear'
p22
aS'domestic_action'
p23
aS'supplementarity'
p24
aS'leakage'
p25
aS'cdm'
p26
aS'impact_assessments'
p27
aS'cers'
p28
aS'expert_review'
p29
aS'facilitative_branch'
p30
aS'enforcement'
p31
aS'compliance_system'
p32
aS'climate_justice'
p33
aS'poverty_eradication'
p34
aS'food'
p35
aS'gender'
p36
aS'loss_and_damage'
p37
aS'agriculture'
p38
aS'health'
p39
aS'water'
p40
aS'poverty'
p41
aS'human_rights'
p42
aS'food_security'
p43
aS'sustainable_development'
p44
aS'indigenous_peoples'
p45
aS'women'
p46
aS'climate_change_impacts'
p47
aS'development'
p48
aS'ozone'
p49
aS'reducing_emissions'
p50
aS'emissions_inventories'
p51
aS'greenhouse_gas_emissions'
p52
aS'hydrofluorocarbons'
p53
aS'perfluorocarbons'
p54
aS'dangerous_anthropogenic_interference'
p55
aS'co2'
p56
aS'montreal_protocol'
p57
aS'emission'
p58
aS'differentiated_responsibilities'
p59
aS'hfcs'
p60
aS'future_commitments'
p61
aS'economies_in_transition'
p62
aS'reference_levels'
p63
aS'berlin_mandate'
p64
aS'emissions_trading'
p65
aS'qelros'
p66
aS'flexibility_mechanisms'
p67
aS'flexibility'
p68
aS'base_year'
p69
aS'assigned_amount_units'
p70
aS'kyoto_protocol'
p71
aS'second_commitment_period'
p72
aS'emissions_trading_system'
p73
aS'binding_commitments'
p74
aS'accounting_rules'
p75
aS'forest_conservation'
p76
aS'reforestation'
p77
aS'sink'
p78
aS'land-use_change'
p79
aS'biodiversity'
p80
aS'forest_management'
p81
aS'afforestation'
p82
aS'desertification'
p83
aS'harvested_wood_products'
p84
aS'option_c'
p85
aS'additional_activities'
p86
aS'land_use'
p87
aS'forestry'
p88
aS'forest'
p89
aS'lulucf'
p90
aS'carbon_stocks'
p91
aS'inaction'
p92
aS'stabilization'
p93
aS'global_climate_observing_system'
p94
aS'uncertainties'
p95
aS'intergovernmental_panel_on_climate_change'
p96
aS'observing_systems'
p97
aS'models'
p98
aS'greenhouse_gas_concentrations'
p99
aS'political_will'
p100
aS'bali_action_plan'
p101
aS'building_blocks'
p102
aS'non-market_approaches'
p103
aS'sectoral_approaches'
p104
aS'market_mechanisms'
p105
aS'climate_finance'
p106
aS'gcf'
p107
aS'historical_responsibility'
p108
aS'methodological_guidance'
p109
aS'redd'
p110
aS'cooperative_action'
p111
aS'market_approaches'
p112
aS'redd+'
p113
aS'long-term_cooperation'
p114
aS'shared_vision'
p115
aS'namas'
p116
aS'mrv'
p117
aS'ica'
p118
aS'mitigation_actions'
p119
aS'post-2012'
p120
aS'performance_indicators'
p121
aS'carbon_sequestration'
p122
aS'renewable_energy'
p123
aS'energy'
p124
aS'investment'
p125
aS'innovation'
p126
aS'business'
p127
aS'intellectual_property_rights'
p128
aS'industry'
p129
aS'enabling_environment'
p130
aS'international_cooperation'
p131
aS'energy_efficiency'
p132
aS'technology_transfer_mechanism'
p133
aS'technology'
p134
aS'research_and_development'
p135
aS'technology_development'
p136
aS'private_sector'
p137
aS'technology_transfer'
p138
aS'fuel'
p139
aS'maritime'
p140
aS'international_aviation'
p141
aS'transport'
p142
aS'maritime_transport'
p143
aS'fossil_fuels'
p144
aS'transportation'
p145
aS'bunker_fuels'
p146
aS'international_transaction_log'
p147
aS'buenos_aires_programme_of_work'
p148
aS'adaptation_technologies'
p149
aS'vulnerable'
p150
aS'small_island'
p151
aS'privileges_and_immunities'
p152
aS'vulnerable_countries'
p153
aS'most_vulnerable'
p154
aS'nairobi_work_programme'
p155
aS'article_9'
p156
aS'vulnerability_and_adaptation'
p157
aS'adaptation_and_response_measures'
p158
aS'mitigation_and_adaptation'
p159
a.