(lp0
(lp1
S'climate_change'
p2
aS'kyoto_protocol'
p3
aa(lp4
g3
aS'rainforest_destruction'
p5
aa(lp6
g2
aS'greenhouse_gases'
p7
aa(lp8
g2
ag7
aa(lp9
g3
ag7
aS'emission_reduction'
p10
aa(lp11
g3
aa(lp12
g2
ag3
aa(lp13
g2
aa(lp14
g3
aa(lp15
g2
ag3
aa(lp16
a(lp17
g2
aa(lp18
a(lp19
a(lp20
g3
aa(lp21
g2
aa(lp22
g2
aa(lp23
g5
aa(lp24
g2
aa(lp25
g3
aa(lp26
g2
aa(lp27
S'fossil_fuels'
p28
ag5
aa(lp29
a(lp30
a(lp31
g3
aa(lp32
a(lp33
a(lp34
a(lp35
a(lp36
g5
aa(lp37
a(lp38
g3
aa(lp39
a(lp40
g2
aa(lp41
a(lp42
a(lp43
a(lp44
a(lp45
g5
aa(lp46
g2
aa(lp47
g3
aa(lp48
a(lp49
a(lp50
g5
aa(lp51
a(lp52
a(lp53
a(lp54
a(lp55
a(lp56
a(lp57
a(lp58
a(lp59
a(lp60
a(lp61
a(lp62
a(lp63
a(lp64
a(lp65
a(lp66
a(lp67
a(lp68
g5
aa(lp69
g2
aa(lp70
g2
ag5
aa(lp71
a(lp72
g2
aa(lp73
g2
aa(lp74
a(lp75
S'aerosols'
p76
aa(lp77
a(lp78
a(lp79
a(lp80
a(lp81
a(lp82
a(lp83
a(lp84
a(lp85
g5
aa(lp86
a(lp87
a(lp88
a(lp89
a(lp90
a(lp91
g5
aa(lp92
a(lp93
a(lp94
g2
aa(lp95
a(lp96
a(lp97
a(lp98
a(lp99
a(lp100
a(lp101
a(lp102
a(lp103
g7
aa(lp104
a(lp105
a(lp106
a(lp107
a(lp108
g2
ag5
aa(lp109
a(lp110
g2
aa(lp111
a(lp112
g5
aa(lp113
a(lp114
a(lp115
a(lp116
a(lp117
a(lp118
a(lp119
a(lp120
a(lp121
a(lp122
a(lp123
a(lp124
a(lp125
a(lp126
a(lp127
a(lp128
g2
aa(lp129
a(lp130
g2
aa(lp131
a(lp132
g5
aa(lp133
a(lp134
a(lp135
a(lp136
a(lp137
g5
aa(lp138
a(lp139
a(lp140
a(lp141
a(lp142
a(lp143
a(lp144
a(lp145
a(lp146
a(lp147
a(lp148
a(lp149
a(lp150
a(lp151
a(lp152
g5
aa(lp153
a(lp154
a(lp155
g2
ag7
aa(lp156
a(lp157
g2
aa(lp158
g2
aa(lp159
a(lp160
a(lp161
a(lp162
g5
aa(lp163
a(lp164
a(lp165
a(lp166
g2
aa(lp167
a(lp168
g2
ag5
aa(lp169
a(lp170
g2
aa(lp171
g7
ag5
aa(lp172
a(lp173
a(lp174
a(lp175
a(lp176
a(lp177
a(lp178
a(lp179
a(lp180
a(lp181
a(lp182
a(lp183
a(lp184
a(lp185
a(lp186
g5
aa(lp187
a(lp188
a(lp189
g2
aa(lp190
g5
aa(lp191
a(lp192
a(lp193
a(lp194
a(lp195
a(lp196
a(lp197
a(lp198
a(lp199
a(lp200
a(lp201
a(lp202
a(lp203
a(lp204
a(lp205
a(lp206
a(lp207
a(lp208
g5
aa(lp209
a(lp210
a(lp211
a(lp212
a(lp213
a(lp214
a(lp215
a(lp216
a(lp217
a(lp218
g76
aa(lp219
a(lp220
a(lp221
a(lp222
a(lp223
g5
aa(lp224
a(lp225
a(lp226
a(lp227
a(lp228
a(lp229
a(lp230
a(lp231
a(lp232
a(lp233
a(lp234
a(lp235
a(lp236
a(lp237
a(lp238
a(lp239
a(lp240
g3
aa(lp241
a(lp242
a(lp243
a(lp244
a(lp245
g5
aa(lp246
S'human'
p247
aa(lp248
g3
aa(lp249
g5
aa(lp250
g2
aa(lp251
a(lp252
g2
ag5
aa(lp253
g5
aa(lp254
g2
aa(lp255
g2
ag247
aa(lp256
g5
aa(lp257
g5
aa(lp258
a(lp259
a(lp260
a(lp261
a(lp262
a(lp263
a(lp264
a(lp265
a(lp266
a(lp267
g5
aa(lp268
g5
aa(lp269
a(lp270
a(lp271
a(lp272
a(lp273
g5
aa(lp274
a(lp275
a(lp276
a(lp277
a(lp278
a(lp279
a(lp280
a(lp281
a(lp282
a(lp283
g5
aa(lp284
a(lp285
a(lp286
g5
aa(lp287
a(lp288
a(lp289
g2
ag7
aa(lp290
g7
aa(lp291
a(lp292
g7
aa(lp293
g7
aa(lp294
a(lp295
a(lp296
a(lp297
a(lp298
g7
aa(lp299
a(lp300
a(lp301
a(lp302
a(lp303
a(lp304
a(lp305
a(lp306
a(lp307
a(lp308
a(lp309
g2
aa(lp310
g3
aa(lp311
a(lp312
g2
aa(lp313
a(lp314
a(lp315
g76
ag2
aa(lp316
a(lp317
a(lp318
a(lp319
a(lp320
a(lp321
a(lp322
a(lp323
a(lp324
a(lp325
a(lp326
a(lp327
a(lp328
a(lp329
a(lp330
a(lp331
a(lp332
a(lp333
a(lp334
a(lp335
g76
ag2
aa(lp336
a(lp337
g2
ag7
aa(lp338
a(lp339
a(lp340
g76
aa(lp341
S'sea_level_rise'
p342
aa(lp343
a(lp344
a(lp345
a(lp346
a(lp347
a(lp348
g28
aa(lp349
a(lp350
a(lp351
g2
aa(lp352
a(lp353
a(lp354
a(lp355
g2
aa(lp356
a(lp357
a(lp358
a(lp359
a(lp360
g2
aa(lp361
a(lp362
g2
aa(lp363
g2
aa(lp364
g2
aa(lp365
a(lp366
g28
aa(lp367
g2
ag28
aa(lp368
a(lp369
a(lp370
a(lp371
a(lp372
a(lp373
a(lp374
a(lp375
a(lp376
a(lp377
a(lp378
a(lp379
g2
aa(lp380
a(lp381
a(lp382
a(lp383
a(lp384
a(lp385
a(lp386
g2
aa(lp387
a(lp388
a(lp389
a(lp390
a(lp391
a(lp392
a(lp393
a(lp394
a(lp395
a(lp396
a(lp397
a(lp398
a(lp399
a(lp400
a(lp401
g2
aa(lp402
g2
aa(lp403
a(lp404
a(lp405
a(lp406
a(lp407
a(lp408
g2
aa(lp409
g2
aa(lp410
a(lp411
g2
aa(lp412
g2
aa(lp413
a(lp414
a(lp415
a(lp416
a(lp417
a(lp418
a(lp419
a(lp420
a(lp421
a(lp422
g2
aa(lp423
a(lp424
a(lp425
a(lp426
a(lp427
a(lp428
a(lp429
a(lp430
a(lp431
a(lp432
a(lp433
a(lp434
a(lp435
a(lp436
a(lp437
a(lp438
a(lp439
a(lp440
a(lp441
a(lp442
g7
aa(lp443
a(lp444
a(lp445
a(lp446
a(lp447
a(lp448
g2
aa(lp449
g2
aa(lp450
a(lp451
a(lp452
a(lp453
a(lp454
a(lp455
a(lp456
a(lp457
a(lp458
a(lp459
a(lp460
a(lp461
g2
ag342
aa(lp462
a(lp463
a(lp464
g2
aa(lp465
a(lp466
a(lp467
a(lp468
g2
aa(lp469
a(lp470
a(lp471
g2
aa(lp472
a(lp473
a(lp474
a(lp475
a(lp476
a(lp477
a(lp478
a(lp479
a(lp480
a(lp481
a(lp482
a(lp483
a(lp484
a(lp485
S'freshwater_scarcity'
p486
ag2
aa(lp487
a(lp488
a(lp489
g2
aa(lp490
g486
ag2
aa(lp491
g2
aa(lp492
a(lp493
a(lp494
g2
aa(lp495
a(lp496
g2
aa(lp497
a(lp498
a(lp499
a(lp500
g2
aa(lp501
g2
aa(lp502
a(lp503
a(lp504
a(lp505
a(lp506
g3
aa(lp507
g3
aa(lp508
a(lp509
g2
ag28
aa(lp510
a(lp511
a(lp512
a(lp513
a(lp514
g7
aa(lp515
g2
ag3
aa(lp516
g2
aa(lp517
a(lp518
a(lp519
a(lp520
a(lp521
g2
aa(lp522
a(lp523
a(lp524
a(lp525
a(lp526
a(lp527
a(lp528
a(lp529
a(lp530
a(lp531
a(lp532
a(lp533
g2
aa(lp534
g2
aa(lp535
g3
aa(lp536
a(lp537
a(lp538
a(lp539
a(lp540
a(lp541
a(lp542
a(lp543
a(lp544
g28
aa(lp545
a(lp546
a(lp547
g3
aa(lp548
a(lp549
a(lp550
g2
aa(lp551
g2
aa(lp552
a(lp553
a(lp554
a(lp555
a(lp556
a(lp557
a(lp558
a(lp559
a(lp560
g7
aa(lp561
a(lp562
a(lp563
g7
aa(lp564
a(lp565
a(lp566
g7
aa(lp567
a(lp568
a(lp569
a(lp570
g2
aa(lp571
a(lp572
a(lp573
g2
aa(lp574
a(lp575
a(lp576
a(lp577
g2
aa(lp578
a(lp579
g76
aa(lp580
g28
aa(lp581
a(lp582
a(lp583
a(lp584
a(lp585
a(lp586
g2
aa(lp587
g3
aa(lp588
g76
ag2
ag7
aa(lp589
g76
aa(lp590
g2
aa(lp591
g2
aa(lp592
a(lp593
g7
ag247
aa(lp594
a(lp595
a(lp596
a(lp597
a(lp598
a(lp599
g2
aa(lp600
g7
aa(lp601
a(lp602
a(lp603
a(lp604
a(lp605
a(lp606
a(lp607
a(lp608
a(lp609
a(lp610
a(lp611
a(lp612
a(lp613
a(lp614
g28
aa(lp615
g2
aa(lp616
a(lp617
a(lp618
a(lp619
a(lp620
a(lp621
a(lp622
a(lp623
g3
aa(lp624
a(lp625
a(lp626
a(lp627
a(lp628
g2
aa(lp629
g2
ag7
aa(lp630
a(lp631
a(lp632
a(lp633
a(lp634
g2
aa(lp635
a(lp636
a(lp637
a(lp638
a(lp639
a(lp640
g2
aa(lp641
g3
aa(lp642
a(lp643
a(lp644
a(lp645
a(lp646
g76
aa(lp647
a(lp648
a(lp649
g7
aa(lp650
a(lp651
a(lp652
g7
aa(lp653
a(lp654
a(lp655
a(lp656
a(lp657
a(lp658
a(lp659
a(lp660
a(lp661
a(lp662
a(lp663
a(lp664
a(lp665
a(lp666
g2
ag3
aa(lp667
g28
aa(lp668
a(lp669
a(lp670
g2
ag7
aa(lp671
g2
aa(lp672
a(lp673
a(lp674
a(lp675
a(lp676
a(lp677
a(lp678
a(lp679
a(lp680
a(lp681
g2
aa(lp682
a(lp683
a(lp684
a(lp685
g2
aa(lp686
a(lp687
g10
aa(lp688
a(lp689
g2
ag3
aa(lp690
g2
ag7
aa(lp691
g2
aa(lp692
g2
aa(lp693
a(lp694
a(lp695
g3
aa(lp696
a(lp697
a(lp698
a(lp699
a(lp700
a(lp701
a(lp702
a(lp703
a(lp704
a(lp705
a(lp706
a(lp707
a(lp708
a(lp709
a(lp710
a(lp711
a(lp712
a(lp713
a(lp714
g3
aa(lp715
g2
aa(lp716
a(lp717
a(lp718
a(lp719
a(lp720
a(lp721
a(lp722
a(lp723
a(lp724
a(lp725
g7
aa(lp726
a(lp727
a(lp728
a(lp729
a(lp730
a(lp731
a(lp732
g2
aa(lp733
g76
ag2
aa(lp734
a(lp735
a(lp736
a(lp737
g3
ag7
aa(lp738
g2
ag7
aa(lp739
g2
ag7
aa(lp740
g2
ag3
ag7
aa(lp741
g2
aa(lp742
a(lp743
a(lp744
a(lp745
a(lp746
a(lp747
a(lp748
a(lp749
a(lp750
a(lp751
g7
aa(lp752
a(lp753
g5
aa(lp754
a(lp755
a(lp756
g247
aa(lp757
a(lp758
a(lp759
a(lp760
a(lp761
a(lp762
a(lp763
a(lp764
g2
aa(lp765
a(lp766
a(lp767
g2
aa(lp768
a(lp769
g2
aa(lp770
a(lp771
a(lp772
a(lp773
g3
aa(lp774
a(lp775
a(lp776
a(lp777
a(lp778
a(lp779
a(lp780
a(lp781
a(lp782
a(lp783
a(lp784
a(lp785
a(lp786
a(lp787
a(lp788
a(lp789
g2
aa(lp790
a(lp791
a(lp792
a(lp793
a(lp794
a(lp795
a(lp796
g2
aa(lp797
g2
aa(lp798
a(lp799
a(lp800
a(lp801
a(lp802
a(lp803
a(lp804
a(lp805
a(lp806
a(lp807
a(lp808
a(lp809
a(lp810
a(lp811
a(lp812
a(lp813
a(lp814
a(lp815
a(lp816
g7
aa(lp817
a(lp818
g2
aa(lp819
a(lp820
a(lp821
a(lp822
a(lp823
a(lp824
a(lp825
a(lp826
a(lp827
a(lp828
a(lp829
a(lp830
g3
aa(lp831
a(lp832
g5
aa(lp833
a(lp834
a(lp835
a(lp836
a(lp837
a(lp838
a(lp839
g2
aa(lp840
g2
ag7
ag342
aa(lp841
g2
ag247
aa(lp842
a(lp843
a(lp844
g2
aa(lp845
g2
aa(lp846
a(lp847
a(lp848
a(lp849
a(lp850
a(lp851
a(lp852
a(lp853
a(lp854
a(lp855
a(lp856
a(lp857
g2
aa(lp858
a(lp859
a(lp860
a(lp861
g10
aa(lp862
a(lp863
a(lp864
a(lp865
g2
aa(lp866
a(lp867
a(lp868
g7
aa(lp869
a(lp870
a(lp871
a(lp872
a(lp873
a(lp874
a(lp875
a(lp876
a(lp877
a(lp878
a(lp879
a(lp880
a(lp881
a(lp882
a(lp883
a(lp884
a(lp885
a(lp886
a(lp887
a(lp888
g2
aa(lp889
a(lp890
a(lp891
g2
aa(lp892
a(lp893
a(lp894
a(lp895
a(lp896
a(lp897
a(lp898
a(lp899
a(lp900
a(lp901
a(lp902
a(lp903
a(lp904
g2
aa(lp905
a(lp906
a(lp907
g2
aa(lp908
g2
aa(lp909
g7
aa(lp910
a(lp911
g2
aa(lp912
a(lp913
a(lp914
a(lp915
a(lp916
a(lp917
a(lp918
a(lp919
a(lp920
a(lp921
a(lp922
g2
aa(lp923
a(lp924
a(lp925
a(lp926
a(lp927
a(lp928
a(lp929
a(lp930
a(lp931
a(lp932
a(lp933
a(lp934
a(lp935
a(lp936
a(lp937
a(lp938
g2
aa(lp939
a(lp940
a(lp941
g2
aa(lp942
a(lp943
a(lp944
a(lp945
a(lp946
a(lp947
a(lp948
g5
aa(lp949
a(lp950
a(lp951
a(lp952
a(lp953
g3
aa(lp954
a(lp955
a(lp956
a(lp957
a(lp958
g7
aa(lp959
a(lp960
g3
aa(lp961
g3
ag7
aa(lp962
g3
aa(lp963
g2
aa(lp964
a(lp965
g2
aa(lp966
g7
aa(lp967
a(lp968
g3
aa(lp969
a(lp970
a(lp971
g2
aa(lp972
a(lp973
g2
aa(lp974
g3
aa(lp975
a(lp976
g3
ag247
aa(lp977
a(lp978
a(lp979
g3
aa(lp980
a(lp981
a(lp982
a(lp983
a(lp984
a(lp985
a(lp986
a(lp987
a(lp988
g3
aa(lp989
g2
ag3
aa(lp990
g3
ag7
aa(lp991
g3
ag7
aa(lp992
g2
ag3
ag7
aa(lp993
a(lp994
a(lp995
a(lp996
a(lp997
g3
aa(lp998
a(lp999
a(lp1000
a(lp1001
a(lp1002
g3
aa(lp1003
a(lp1004
a(lp1005
a(lp1006
a(lp1007
g3
aa(lp1008
a(lp1009
a(lp1010
g3
aa(lp1011
a(lp1012
a(lp1013
a(lp1014
a(lp1015
a(lp1016
a(lp1017
a(lp1018
a(lp1019
a(lp1020
g2
aa(lp1021
a(lp1022
g3
aa(lp1023
a(lp1024
a(lp1025
a(lp1026
g2
aa(lp1027
g2
aa(lp1028
a(lp1029
a(lp1030
a(lp1031
a(lp1032
a(lp1033
a(lp1034
a(lp1035
a(lp1036
g76
aa(lp1037
g2
aa(lp1038
a(lp1039
a(lp1040
g2
aa(lp1041
a(lp1042
a(lp1043
a(lp1044
a(lp1045
a(lp1046
g3
aa(lp1047
a(lp1048
a(lp1049
a(lp1050
a(lp1051
a(lp1052
g2
aa(lp1053
a(lp1054
g2
ag7
aa(lp1055
a(lp1056
a(lp1057
a(lp1058
g3
aa(lp1059
a(lp1060
a(lp1061
a(lp1062
g2
aa(lp1063
g2
ag7
aa(lp1064
a(lp1065
g2
ag7
aa(lp1066
a(lp1067
g3
aa(lp1068
g2
aa(lp1069
a(lp1070
a(lp1071
a(lp1072
a(lp1073
a(lp1074
a(lp1075
a(lp1076
a(lp1077
a(lp1078
a(lp1079
g7
aa(lp1080
a(lp1081
a(lp1082
a(lp1083
a(lp1084
a(lp1085
a(lp1086
a(lp1087
a(lp1088
a(lp1089
a(lp1090
a(lp1091
a(lp1092
a(lp1093
a(lp1094
a(lp1095
a(lp1096
a(lp1097
g3
aa(lp1098
a(lp1099
g3
aa(lp1100
a(lp1101
a(lp1102
a(lp1103
g2
aa(lp1104
g2
aa(lp1105
g2
aa(lp1106
a(lp1107
g2
ag7
aa(lp1108
a(lp1109
g2
aa(lp1110
a(lp1111
a(lp1112
g3
aa(lp1113
a(lp1114
g28
aa(lp1115
a(lp1116
a(lp1117
g2
aa(lp1118
g7
aa(lp1119
g2
aa(lp1120
a(lp1121
g7
aa(lp1122
a(lp1123
g2
ag3
aa(lp1124
g3
aa(lp1125
g2
aa(lp1126
a(lp1127
g2
aa(lp1128
a(lp1129
a(lp1130
a(lp1131
g2
ag3
aa(lp1132
g3
aa(lp1133
a(lp1134
a(lp1135
a(lp1136
g2
aa(lp1137
a(lp1138
g10
aa(lp1139
g2
aa(lp1140
g2
aa(lp1141
g3
aa(lp1142
a(lp1143
g3
aa(lp1144
g2
aa(lp1145
g2
aa(lp1146
g2
aa(lp1147
g2
ag7
aa(lp1148
g2
ag7
aa(lp1149
g3
ag7
aa(lp1150
a(lp1151
g2
aa(lp1152
a(lp1153
a(lp1154
g2
aa(lp1155
a(lp1156
a(lp1157
a(lp1158
a(lp1159
a(lp1160
a(lp1161
a(lp1162
g7
aa(lp1163
a(lp1164
g2
ag3
aa(lp1165
a(lp1166
a(lp1167
g2
aa(lp1168
g2
aa(lp1169
g3
aa(lp1170
a(lp1171
a(lp1172
a(lp1173
a(lp1174
a(lp1175
a(lp1176
a(lp1177
g2
aa(lp1178
a(lp1179
g2
aa(lp1180
g2
aa(lp1181
a(lp1182
a(lp1183
a(lp1184
g2
ag3
aa(lp1185
a(lp1186
a(lp1187
a(lp1188
g2
aa(lp1189
a(lp1190
a(lp1191
a(lp1192
a(lp1193
a(lp1194
a(lp1195
a(lp1196
a(lp1197
a(lp1198
a(lp1199
a(lp1200
a(lp1201
a(lp1202
a(lp1203
a(lp1204
a(lp1205
a(lp1206
a(lp1207
a(lp1208
a(lp1209
g3
aa(lp1210
g2
aa(lp1211
a(lp1212
a(lp1213
g2
ag7
aa(lp1214
a(lp1215
g2
aa(lp1216
a(lp1217
a(lp1218
a(lp1219
a(lp1220
g2
aa(lp1221
a(lp1222
g2
aa(lp1223
g2
aa(lp1224
g2
aa(lp1225
g2
aa(lp1226
g2
aa(lp1227
g2
aa(lp1228
g2
aa(lp1229
g2
aa(lp1230
a(lp1231
g486
ag2
aa(lp1232
a(lp1233
g2
aa(lp1234
g2
aa(lp1235
g2
ag247
aa(lp1236
a(lp1237
a(lp1238
g2
aa(lp1239
a(lp1240
a(lp1241
g2
aa(lp1242
a(lp1243
a(lp1244
a(lp1245
a(lp1246
a(lp1247
a(lp1248
a(lp1249
a(lp1250
a(lp1251
a(lp1252
g7
aa(lp1253
a(lp1254
a(lp1255
a(lp1256
g28
aa(lp1257
g28
ag7
aa(lp1258
a(lp1259
g28
aa(lp1260
a(lp1261
g2
aa(lp1262
a(lp1263
a(lp1264
a(lp1265
a(lp1266
g2
aa(lp1267
a(lp1268
a(lp1269
a(lp1270
a(lp1271
a(lp1272
g5
aa(lp1273
a(lp1274
a(lp1275
a(lp1276
g3
aa(lp1277
a(lp1278
a(lp1279
a(lp1280
a(lp1281
a(lp1282
a(lp1283
a(lp1284
a(lp1285
a(lp1286
a(lp1287
a(lp1288
a(lp1289
a(lp1290
a(lp1291
a(lp1292
a(lp1293
a(lp1294
g2
aa(lp1295
g2
aa(lp1296
a(lp1297
g3
aa(lp1298
g2
aa(lp1299
a(lp1300
a(lp1301
a(lp1302
a(lp1303
a(lp1304
a(lp1305
a(lp1306
a(lp1307
g2
aa(lp1308
a(lp1309
a(lp1310
a(lp1311
a(lp1312
g28
aa(lp1313
a(lp1314
a(lp1315
g2
aa(lp1316
g2
aa(lp1317
a(lp1318
g2
aa(lp1319
a(lp1320
a(lp1321
a(lp1322
a(lp1323
a(lp1324
a(lp1325
a(lp1326
a(lp1327
a(lp1328
a(lp1329
g2
aa(lp1330
a(lp1331
a(lp1332
a(lp1333
a(lp1334
a(lp1335
a(lp1336
a(lp1337
a(lp1338
a(lp1339
a(lp1340
a(lp1341
g2
aa(lp1342
a(lp1343
a(lp1344
a(lp1345
a(lp1346
a(lp1347
a(lp1348
g2
aa(lp1349
g2
aa(lp1350
a(lp1351
g2
aa(lp1352
g2
aa(lp1353
g2
aa(lp1354
a(lp1355
a(lp1356
g2
ag28
ag247
ag5
aa(lp1357
a(lp1358
g2
aa(lp1359
a(lp1360
g2
aa(lp1361
g2
aa(lp1362
g2
aa(lp1363
a(lp1364
a(lp1365
a(lp1366
g2
aa(lp1367
g2
aa(lp1368
g2
aa(lp1369
g2
aa(lp1370
g2
aa(lp1371
g2
aa(lp1372
g2
aa(lp1373
g486
ag2
aa(lp1374
g2
aa(lp1375
a(lp1376
a(lp1377
g2
aa(lp1378
g2
aa(lp1379
a(lp1380
g2
aa(lp1381
g2
aa(lp1382
g2
aa(lp1383
g2
aa(lp1384
g2
aa(lp1385
g2
aa(lp1386
g2
aa(lp1387
g2
aa(lp1388
g2
aa(lp1389
g2
aa(lp1390
a(lp1391
a(lp1392
a(lp1393
a(lp1394
g2
aa(lp1395
a(lp1396
g2
aa(lp1397
a(lp1398
g2
aa(lp1399
g2
aa(lp1400
a(lp1401
a(lp1402
g2
aa(lp1403
g2
aa(lp1404
g2
aa(lp1405
a(lp1406
a(lp1407
g2
ag3
aa(lp1408
g3
aa(lp1409
g2
aa(lp1410
g2
ag7
aa(lp1411
g3
ag7
aa(lp1412
g3
aa(lp1413
a(lp1414
a(lp1415
a(lp1416
g3
aa(lp1417
g2
aa(lp1418
a(lp1419
g2
aa(lp1420
g2
aa(lp1421
a(lp1422
a(lp1423
g2
aa(lp1424
g2
aa(lp1425
a(lp1426
a(lp1427
g2
aa(lp1428
a(lp1429
g2
ag3
aa(lp1430
g2
ag3
aa(lp1431
g2
aa(lp1432
a(lp1433
a(lp1434
a(lp1435
g3
aa(lp1436
a(lp1437
a(lp1438
g2
aa(lp1439
a(lp1440
a(lp1441
g3
aa(lp1442
g2
ag3
aa(lp1443
g2
aa(lp1444
g2
aa(lp1445
g2
aa(lp1446
a(lp1447
a(lp1448
g3
ag10
aa(lp1449
a(lp1450
g2
ag10
aa(lp1451
g10
aa(lp1452
g3
ag10
aa(lp1453
g10
aa(lp1454
a(lp1455
a(lp1456
a(lp1457
g2
aa(lp1458
a(lp1459
a(lp1460
a(lp1461
g2
ag10
aa(lp1462
a(lp1463
g2
aa(lp1464
a(lp1465
g3
aa(lp1466
a(lp1467
g2
aa(lp1468
a(lp1469
a(lp1470
g7
ag10
aa(lp1471
a(lp1472
g2
aa(lp1473
a(lp1474
a(lp1475
g7
aa(lp1476
g3
aa(lp1477
a(lp1478
a(lp1479
a(lp1480
a(lp1481
a(lp1482
a(lp1483
a(lp1484
a(lp1485
a(lp1486
a(lp1487
a(lp1488
a(lp1489
g2
aa(lp1490
a(lp1491
a(lp1492
a(lp1493
a(lp1494
a(lp1495
g2
aa(lp1496
a(lp1497
a(lp1498
g2
aa(lp1499
g2
aa(lp1500
g2
aa(lp1501
a(lp1502
g2
aa(lp1503
a(lp1504
g7
aa(lp1505
g7
aa(lp1506
g2
aa(lp1507
a(lp1508
a(lp1509
a(lp1510
g7
aa(lp1511
g7
aa(lp1512
a(lp1513
a(lp1514
g2
aa(lp1515
a(lp1516
a(lp1517
a(lp1518
a(lp1519
a(lp1520
a(lp1521
g3
aa(lp1522
a(lp1523
g3
aa(lp1524
g3
aa(lp1525
a(lp1526
a(lp1527
a(lp1528
g2
aa(lp1529
a(lp1530
a(lp1531
g3
aa(lp1532
a(lp1533
g2
aa(lp1534
a(lp1535
a(lp1536
a(lp1537
a(lp1538
a(lp1539
a(lp1540
a(lp1541
a(lp1542
a(lp1543
g2
aa(lp1544
g3
aa(lp1545
g3
aa(lp1546
g3
aa(lp1547
a(lp1548
a(lp1549
g7
aa(lp1550
a(lp1551
a(lp1552
g2
aa(lp1553
a(lp1554
g3
aa(lp1555
a(lp1556
a(lp1557
g3
aa(lp1558
a(lp1559
a(lp1560
a(lp1561
a(lp1562
a(lp1563
a(lp1564
a(lp1565
g7
aa(lp1566
a(lp1567
a(lp1568
a(lp1569
g3
aa(lp1570
a(lp1571
a(lp1572
a(lp1573
a(lp1574
a(lp1575
a(lp1576
a(lp1577
g3
aa(lp1578
g3
aa(lp1579
a(lp1580
a(lp1581
g3
aa(lp1582
a(lp1583
a(lp1584
a(lp1585
g2
aa(lp1586
a(lp1587
a(lp1588
a(lp1589
a(lp1590
a(lp1591
a(lp1592
a(lp1593
a(lp1594
a(lp1595
a(lp1596
a(lp1597
a(lp1598
a(lp1599
a(lp1600
a(lp1601
a(lp1602
g3
aa(lp1603
a(lp1604
a(lp1605
a(lp1606
a(lp1607
g3
aa(lp1608
g3
aa(lp1609
g3
aa(lp1610
g7
aa(lp1611
a(lp1612
g3
aa(lp1613
g3
aa(lp1614
a(lp1615
g3
aa(lp1616
a(lp1617
g3
aa(lp1618
a(lp1619
a(lp1620
a(lp1621
a(lp1622
g7
aa(lp1623
a(lp1624
a(lp1625
g2
ag3
aa(lp1626
a(lp1627
a(lp1628
a(lp1629
a(lp1630
a(lp1631
a(lp1632
a(lp1633
a(lp1634
a(lp1635
g5
aa(lp1636
a(lp1637
a(lp1638
a(lp1639
a(lp1640
a(lp1641
a(lp1642
g3
aa(lp1643
a(lp1644
a(lp1645
a(lp1646
a(lp1647
g2
aa(lp1648
a(lp1649
a(lp1650
a(lp1651
a(lp1652
g2
aa(lp1653
g3
aa(lp1654
a(lp1655
a(lp1656
g2
aa(lp1657
g2
aa(lp1658
g2
aa(lp1659
a(lp1660
a(lp1661
a(lp1662
a(lp1663
a(lp1664
a(lp1665
g3
aa(lp1666
g2
aa(lp1667
a(lp1668
a(lp1669
g76
aa(lp1670
a(lp1671
g3
aa(lp1672
a(lp1673
a(lp1674
a(lp1675
g7
aa(lp1676
g2
ag3
aa(lp1677
g3
aa(lp1678
g3
aa(lp1679
a(lp1680
a(lp1681
a(lp1682
a(lp1683
a(lp1684
a(lp1685
a(lp1686
a(lp1687
g7
aa(lp1688
a(lp1689
g7
aa(lp1690
a(lp1691
a(lp1692
a(lp1693
a(lp1694
a(lp1695
g7
aa(lp1696
a(lp1697
g76
aa(lp1698
a(lp1699
a(lp1700
a(lp1701
a(lp1702
a(lp1703
g2
aa(lp1704
a(lp1705
a(lp1706
g3
aa(lp1707
a(lp1708
a(lp1709
g76
aa(lp1710
a(lp1711
a(lp1712
a(lp1713
a(lp1714
a(lp1715
a(lp1716
g486
ag2
aa(lp1717
a(lp1718
a(lp1719
g2
aa(lp1720
a(lp1721
a(lp1722
g3
aa(lp1723
g3
aa(lp1724
g3
aa(lp1725
a(lp1726
a(lp1727
g3
aa(lp1728
a(lp1729
a(lp1730
a(lp1731
a(lp1732
a(lp1733
a(lp1734
g2
aa(lp1735
a(lp1736
a(lp1737
g2
aa(lp1738
g2
aa(lp1739
g2
aa(lp1740
g3
aa(lp1741
a(lp1742
a(lp1743
a(lp1744
a(lp1745
g2
ag247
aa(lp1746
a(lp1747
a(lp1748
a(lp1749
a(lp1750
g3
aa(lp1751
g7
aa(lp1752
a(lp1753
a(lp1754
g7
aa(lp1755
a(lp1756
g2
aa(lp1757
g2
aa(lp1758
g2
aa(lp1759
a(lp1760
g2
aa(lp1761
g2
aa(lp1762
a(lp1763
g2
aa(lp1764
a(lp1765
a(lp1766
a(lp1767
a(lp1768
g3
aa(lp1769
a(lp1770
a(lp1771
a(lp1772
a(lp1773
a(lp1774
g3
aa(lp1775
a(lp1776
a(lp1777
a(lp1778
g2
aa(lp1779
a(lp1780
a(lp1781
a(lp1782
a(lp1783
a(lp1784
a(lp1785
a(lp1786
a(lp1787
a(lp1788
g3
aa(lp1789
a(lp1790
a(lp1791
a(lp1792
a(lp1793
a(lp1794
a(lp1795
a(lp1796
g3
aa(lp1797
g3
aa(lp1798
a(lp1799
g2
aa(lp1800
g3
aa(lp1801
a(lp1802
a(lp1803
g10
aa(lp1804
a(lp1805
a(lp1806
a(lp1807
a(lp1808
a(lp1809
a(lp1810
g3
aa(lp1811
a(lp1812
a(lp1813
a(lp1814
a(lp1815
a(lp1816
a(lp1817
a(lp1818
a(lp1819
a(lp1820
a(lp1821
a(lp1822
a(lp1823
a(lp1824
a(lp1825
a(lp1826
a(lp1827
a(lp1828
a(lp1829
a(lp1830
a(lp1831
g3
aa(lp1832
a(lp1833
g3
aa(lp1834
g3
aa(lp1835
g2
aa(lp1836
g2
ag3
aa(lp1837
g2
aa(lp1838
g3
aa(lp1839
g2
ag7
aa(lp1840
g3
ag7
aa(lp1841
a(lp1842
a(lp1843
a(lp1844
a(lp1845
g3
aa(lp1846
a(lp1847
g3
aa(lp1848
a(lp1849
a(lp1850
a(lp1851
g3
aa(lp1852
g2
aa(lp1853
a(lp1854
g2
aa(lp1855
g2
aa(lp1856
g2
aa(lp1857
a(lp1858
a(lp1859
a(lp1860
g3
aa(lp1861
g5
aa(lp1862
a(lp1863
g2
aa(lp1864
g2
aa(lp1865
g5
aa(lp1866
g2
aa(lp1867
g2
aa(lp1868
g2
aa(lp1869
a(lp1870
a(lp1871
a(lp1872
g2
aa(lp1873
g2
ag28
aa(lp1874
a(lp1875
a(lp1876
a(lp1877
a(lp1878
a(lp1879
a(lp1880
a(lp1881
a(lp1882
a(lp1883
a(lp1884
a(lp1885
g2
aa(lp1886
a(lp1887
a(lp1888
a(lp1889
a(lp1890
a(lp1891
g2
aa(lp1892
g2
aa(lp1893
g2
aa(lp1894
a(lp1895
g10
aa(lp1896
a(lp1897
g2
aa(lp1898
g7
aa(lp1899
g10
aa(lp1900
g2
aa(lp1901
a(lp1902
a(lp1903
g2
ag3
aa(lp1904
g2
ag3
aa(lp1905
a(lp1906
g2
aa(lp1907
a(lp1908
g10
aa(lp1909
a(lp1910
a(lp1911
a(lp1912
a(lp1913
a(lp1914
g247
aa(lp1915
g2
aa(lp1916
a(lp1917
a(lp1918
a(lp1919
a(lp1920
a(lp1921
a(lp1922
a(lp1923
a(lp1924
g2
aa(lp1925
a(lp1926
a(lp1927
a(lp1928
a(lp1929
a(lp1930
a(lp1931
a(lp1932
a(lp1933
a(lp1934
a(lp1935
a(lp1936
a(lp1937
a(lp1938
a(lp1939
a(lp1940
a(lp1941
a(lp1942
a(lp1943
g2
aa(lp1944
a(lp1945
a(lp1946
a(lp1947
g2
aa(lp1948
g5
aa(lp1949
g2
aa(lp1950
a(lp1951
a(lp1952
a(lp1953
a(lp1954
a(lp1955
a(lp1956
a(lp1957
g10
aa(lp1958
g7
aa(lp1959
a(lp1960
a(lp1961
a(lp1962
a(lp1963
a(lp1964
a(lp1965
g76
aa(lp1966
a(lp1967
a(lp1968
a(lp1969
a(lp1970
a(lp1971
a(lp1972
a(lp1973
a(lp1974
a(lp1975
g5
aa(lp1976
a(lp1977
a(lp1978
a(lp1979
a(lp1980
a(lp1981
a(lp1982
a(lp1983
a(lp1984
a(lp1985
a(lp1986
a(lp1987
g3
aa(lp1988
a(lp1989
a(lp1990
g3
aa(lp1991
a(lp1992
a(lp1993
a(lp1994
a(lp1995
a(lp1996
a(lp1997
a(lp1998
a(lp1999
a(lp2000
g2
aa(lp2001
a(lp2002
a(lp2003
a(lp2004
a(lp2005
g2
aa(lp2006
g2
aa(lp2007
a(lp2008
a(lp2009
a(lp2010
g7
aa(lp2011
a(lp2012
g2
aa(lp2013
a(lp2014
a(lp2015
a(lp2016
a(lp2017
a(lp2018
a(lp2019
g3
aa(lp2020
g10
aa(lp2021
g10
aa(lp2022
a(lp2023
a(lp2024
a(lp2025
a(lp2026
a(lp2027
a(lp2028
g5
aa(lp2029
a(lp2030
a(lp2031
a(lp2032
a(lp2033
g2
aa(lp2034
g3
aa(lp2035
g2
aa(lp2036
g2
aa(lp2037
a(lp2038
a(lp2039
a(lp2040
a(lp2041
a(lp2042
a(lp2043
g7
aa(lp2044
a(lp2045
g3
aa(lp2046
g3
aa(lp2047
a(lp2048
g2
ag3
aa(lp2049
a(lp2050
g3
aa(lp2051
g2
aa(lp2052
a(lp2053
a(lp2054
g2
aa(lp2055
a(lp2056
a(lp2057
a(lp2058
a(lp2059
a(lp2060
a(lp2061
a(lp2062
a(lp2063
a(lp2064
a(lp2065
a(lp2066
a(lp2067
a(lp2068
a(lp2069
a(lp2070
a(lp2071
a(lp2072
a(lp2073
a(lp2074
g76
aa(lp2075
a(lp2076
a(lp2077
a(lp2078
a(lp2079
a(lp2080
a(lp2081
a(lp2082
a(lp2083
a(lp2084
a(lp2085
a(lp2086
g7
aa(lp2087
g7
aa(lp2088
a(lp2089
a(lp2090
a(lp2091
a(lp2092
g3
aa(lp2093
a(lp2094
a(lp2095
a(lp2096
g247
aa(lp2097
a(lp2098
a(lp2099
a(lp2100
a(lp2101
a(lp2102
a(lp2103
a(lp2104
a(lp2105
a(lp2106
a(lp2107
a(lp2108
a(lp2109
a(lp2110
a(lp2111
a(lp2112
a(lp2113
a(lp2114
a(lp2115
a(lp2116
a(lp2117
g3
aa(lp2118
a(lp2119
a(lp2120
a(lp2121
g2
aa(lp2122
a(lp2123
a(lp2124
g2
aa(lp2125
a(lp2126
a(lp2127
a(lp2128
g3
aa(lp2129
g3
aa(lp2130
a(lp2131
a(lp2132
a(lp2133
a(lp2134
g3
aa(lp2135
a(lp2136
a(lp2137
a(lp2138
a(lp2139
g3
aa(lp2140
a(lp2141
g3
aa(lp2142
g3
aa(lp2143
g2
aa(lp2144
g5
aa(lp2145
a(lp2146
a(lp2147
a(lp2148
a(lp2149
g5
aa(lp2150
a(lp2151
a(lp2152
a(lp2153
a(lp2154
a(lp2155
a(lp2156
g2
ag247
aa(lp2157
a(lp2158
a(lp2159
a(lp2160
a(lp2161
a(lp2162
a(lp2163
g3
aa(lp2164
a(lp2165
a(lp2166
a(lp2167
a(lp2168
a(lp2169
a(lp2170
a(lp2171
a(lp2172
a(lp2173
g2
ag247
aa(lp2174
g2
ag247
aa(lp2175
a(lp2176
a(lp2177
a(lp2178
a(lp2179
a(lp2180
a(lp2181
a(lp2182
a(lp2183
a(lp2184
a(lp2185
a(lp2186
g3
aa(lp2187
a(lp2188
g7
aa(lp2189
a(lp2190
a(lp2191
a(lp2192
a(lp2193
a(lp2194
a(lp2195
a(lp2196
a(lp2197
g247
aa(lp2198
a(lp2199
a(lp2200
a(lp2201
a(lp2202
a(lp2203
g2
aa(lp2204
a(lp2205
g2
aa(lp2206
g2
ag3
aa(lp2207
a(lp2208
a(lp2209
g2
aa(lp2210
a(lp2211
a(lp2212
a(lp2213
a(lp2214
g3
aa(lp2215
a(lp2216
a(lp2217
a(lp2218
a(lp2219
g7
aa(lp2220
a(lp2221
a(lp2222
a(lp2223
a(lp2224
a(lp2225
a(lp2226
a(lp2227
g2
aa(lp2228
a(lp2229
a(lp2230
a(lp2231
a(lp2232
a(lp2233
a(lp2234
a(lp2235
g76
aa(lp2236
a(lp2237
a(lp2238
a(lp2239
a(lp2240
a(lp2241
a(lp2242
a(lp2243
a(lp2244
g2
aa(lp2245
g10
aa(lp2246
a(lp2247
a(lp2248
a(lp2249
g3
aa(lp2250
a(lp2251
a(lp2252
a(lp2253
a(lp2254
a(lp2255
a(lp2256
a(lp2257
g3
aa(lp2258
a(lp2259
g247
aa(lp2260
a(lp2261
g10
aa(lp2262
g2
aa(lp2263
a(lp2264
a(lp2265
a(lp2266
a(lp2267
a(lp2268
a(lp2269
a(lp2270
a(lp2271
a(lp2272
a(lp2273
a(lp2274
a(lp2275
a(lp2276
g247
aa(lp2277
g247
aa(lp2278
a(lp2279
a(lp2280
a(lp2281
a(lp2282
g247
aa(lp2283
a(lp2284
g7
aa(lp2285
a(lp2286
a(lp2287
a(lp2288
a(lp2289
a(lp2290
a(lp2291
a(lp2292
a(lp2293
a(lp2294
g2
aa(lp2295
a(lp2296
a(lp2297
g2
aa(lp2298
a(lp2299
a(lp2300
a(lp2301
a(lp2302
a(lp2303
a(lp2304
a(lp2305
a(lp2306
a(lp2307
a(lp2308
g2
aa(lp2309
a(lp2310
a(lp2311
g247
aa(lp2312
g2
ag3
aa(lp2313
g2
ag3
aa(lp2314
g3
aa(lp2315
g2
ag7
aa(lp2316
g3
ag7
aa(lp2317
a(lp2318
a(lp2319
g2
aa(lp2320
g2
aa(lp2321
g2
aa(lp2322
g2
aa(lp2323
g2
ag3
aa(lp2324
g2
ag3
aa(lp2325
a(lp2326
a(lp2327
g2
aa(lp2328
g3
aa(lp2329
a(lp2330
g2
ag3
aa(lp2331
g2
aa(lp2332
a(lp2333
g3
aa(lp2334
g2
aa(lp2335
g3
aa(lp2336
g3
aa(lp2337
a(lp2338
a(lp2339
a(lp2340
a(lp2341
a(lp2342
a(lp2343
a(lp2344
g2
aa(lp2345
g2
aa(lp2346
a(lp2347
g2
ag3
aa(lp2348
g2
aa(lp2349
g3
aa(lp2350
g2
ag3
aa(lp2351
a(lp2352
a(lp2353
a(lp2354
a(lp2355
a(lp2356
a(lp2357
g3
aa(lp2358
a(lp2359
g3
aa(lp2360
a(lp2361
g3
aa(lp2362
g3
ag10
aa(lp2363
g10
aa(lp2364
g3
aa(lp2365
g3
aa(lp2366
g3
aa(lp2367
a(lp2368
a(lp2369
a(lp2370
a(lp2371
g3
aa(lp2372
g3
aa(lp2373
g2
aa(lp2374
g3
aa(lp2375
g2
aa(lp2376
g5
aa(lp2377
g2
aa(lp2378
a(lp2379
g2
aa(lp2380
g3
aa(lp2381
a(lp2382
a(lp2383
a(lp2384
a(lp2385
a(lp2386
g2
aa(lp2387
a(lp2388
a(lp2389
g3
aa(lp2390
a(lp2391
g3
aa(lp2392
a(lp2393
g3
aa(lp2394
g3
aa(lp2395
a(lp2396
a(lp2397
a(lp2398
a(lp2399
a(lp2400
a(lp2401
a(lp2402
g2
aa(lp2403
a(lp2404
a(lp2405
a(lp2406
a(lp2407
g3
aa(lp2408
a(lp2409
a(lp2410
a(lp2411
a(lp2412
a(lp2413
g3
aa(lp2414
a(lp2415
g3
aa(lp2416
g3
aa(lp2417
g2
aa(lp2418
a(lp2419
a(lp2420
g2
aa(lp2421
a(lp2422
a(lp2423
a(lp2424
g3
aa(lp2425
g2
aa(lp2426
g3
aa(lp2427
a(lp2428
a(lp2429
a(lp2430
a(lp2431
g3
aa(lp2432
g2
aa(lp2433
a(lp2434
g10
aa(lp2435
a(lp2436
a(lp2437
a(lp2438
a(lp2439
a(lp2440
a(lp2441
a(lp2442
a(lp2443
a(lp2444
a(lp2445
a(lp2446
a(lp2447
g3
aa(lp2448
a(lp2449
a(lp2450
a(lp2451
a(lp2452
g2
aa(lp2453
g2
aa(lp2454
g2
aa(lp2455
g2
aa(lp2456
a(lp2457
a(lp2458
a(lp2459
a(lp2460
a(lp2461
a(lp2462
a(lp2463
g10
aa(lp2464
a(lp2465
a(lp2466
a(lp2467
a(lp2468
g3
aa(lp2469
a(lp2470
a(lp2471
a(lp2472
a(lp2473
a(lp2474
a(lp2475
a(lp2476
a(lp2477
g76
aa(lp2478
a(lp2479
g3
aa(lp2480
a(lp2481
a(lp2482
a(lp2483
a(lp2484
g2
aa(lp2485
a(lp2486
a(lp2487
a(lp2488
a(lp2489
g3
aa(lp2490
a(lp2491
g3
aa(lp2492
a(lp2493
g2
aa(lp2494
g3
aa(lp2495
a(lp2496
a(lp2497
a(lp2498
a(lp2499
g76
aa(lp2500
a(lp2501
g3
aa(lp2502
a(lp2503
a(lp2504
a(lp2505
a(lp2506
g2
aa(lp2507
a(lp2508
a(lp2509
a(lp2510
a(lp2511
g3
aa(lp2512
a(lp2513
g3
aa(lp2514
a(lp2515
g2
aa(lp2516
g3
aa(lp2517
a(lp2518
a(lp2519
a(lp2520
g3
aa(lp2521
a(lp2522
a(lp2523
a(lp2524
a(lp2525
a(lp2526
g3
aa(lp2527
a(lp2528
a(lp2529
g3
aa(lp2530
a(lp2531
g3
aa(lp2532
g2
aa(lp2533
g2
aa(lp2534
a(lp2535
a(lp2536
a(lp2537
a(lp2538
a(lp2539
g2
aa(lp2540
a(lp2541
a(lp2542
a(lp2543
a(lp2544
a(lp2545
a(lp2546
a(lp2547
a(lp2548
a(lp2549
a(lp2550
a(lp2551
a(lp2552
a(lp2553
a(lp2554
a(lp2555
a(lp2556
a(lp2557
a(lp2558
a(lp2559
g2
ag3
aa(lp2560
g2
aa(lp2561
g2
aa(lp2562
g2
ag3
aa(lp2563
g2
ag3
aa(lp2564
a(lp2565
a(lp2566
g7
aa(lp2567
a(lp2568
a(lp2569
g76
aa(lp2570
a(lp2571
a(lp2572
a(lp2573
a(lp2574
a(lp2575
a(lp2576
a(lp2577
a(lp2578
a(lp2579
a(lp2580
a(lp2581
a(lp2582
a(lp2583
a(lp2584
a(lp2585
a(lp2586
a(lp2587
a(lp2588
a(lp2589
a(lp2590
a(lp2591
g3
aa(lp2592
a(lp2593
a(lp2594
a(lp2595
g2
aa(lp2596
a(lp2597
a(lp2598
a(lp2599
a(lp2600
a(lp2601
a(lp2602
a(lp2603
a(lp2604
a(lp2605
a(lp2606
a(lp2607
a(lp2608
a(lp2609
a(lp2610
a(lp2611
a(lp2612
a(lp2613
a(lp2614
a(lp2615
a(lp2616
a(lp2617
a(lp2618
g3
aa(lp2619
a(lp2620
a(lp2621
a(lp2622
a(lp2623
g247
aa(lp2624
a(lp2625
a(lp2626
a(lp2627
a(lp2628
a(lp2629
a(lp2630
g2
aa(lp2631
g2
ag3
aa(lp2632
g2
ag3
aa(lp2633
g2
ag7
aa(lp2634
g3
ag7
aa(lp2635
a(lp2636
a(lp2637
g2
aa(lp2638
g2
aa(lp2639
g2
ag5
aa(lp2640
g2
aa(lp2641
g2
aa(lp2642
g2
aa(lp2643
g2
aa(lp2644
a(lp2645
a(lp2646
a(lp2647
g2
aa(lp2648
g2
ag3
aa(lp2649
g2
aa(lp2650
g3
aa(lp2651
g2
ag3
aa(lp2652
g2
aa(lp2653
a(lp2654
a(lp2655
g2
ag3
aa(lp2656
a(lp2657
a(lp2658
a(lp2659
a(lp2660
a(lp2661
g2
ag3
aa(lp2662
g3
aa(lp2663
g2
aa(lp2664
g3
aa(lp2665
a(lp2666
a(lp2667
a(lp2668
a(lp2669
a(lp2670
g2
aa(lp2671
a(lp2672
a(lp2673
a(lp2674
g3
aa(lp2675
a(lp2676
a(lp2677
a(lp2678
a(lp2679
a(lp2680
a(lp2681
g2
aa(lp2682
g3
aa(lp2683
a(lp2684
a(lp2685
a(lp2686
a(lp2687
a(lp2688
a(lp2689
g3
aa(lp2690
g3
aa(lp2691
g2
aa(lp2692
a(lp2693
a(lp2694
a(lp2695
g3
aa(lp2696
a(lp2697
a(lp2698
g3
aa(lp2699
a(lp2700
a(lp2701
a(lp2702
a(lp2703
a(lp2704
g2
aa(lp2705
a(lp2706
a(lp2707
a(lp2708
a(lp2709
g3
aa(lp2710
a(lp2711
g2
aa(lp2712
a(lp2713
a(lp2714
a(lp2715
a(lp2716
a(lp2717
g2
aa(lp2718
a(lp2719
a(lp2720
a(lp2721
a(lp2722
a(lp2723
a(lp2724
a(lp2725
a(lp2726
a(lp2727
g3
aa(lp2728
a(lp2729
a(lp2730
a(lp2731
a(lp2732
a(lp2733
a(lp2734
a(lp2735
a(lp2736
a(lp2737
a(lp2738
a(lp2739
a(lp2740
g2
aa(lp2741
a(lp2742
a(lp2743
a(lp2744
a(lp2745
a(lp2746
a(lp2747
a(lp2748
a(lp2749
a(lp2750
g3
aa(lp2751
g3
aa(lp2752
g3
aa(lp2753
a(lp2754
a(lp2755
a(lp2756
g2
ag3
aa(lp2757
a(lp2758
a(lp2759
a(lp2760
a(lp2761
a(lp2762
a(lp2763
a(lp2764
a(lp2765
g2
aa(lp2766
a(lp2767
a(lp2768
a(lp2769
a(lp2770
a(lp2771
a(lp2772
a(lp2773
a(lp2774
a(lp2775
g3
aa(lp2776
a(lp2777
a(lp2778
a(lp2779
a(lp2780
a(lp2781
a(lp2782
a(lp2783
a(lp2784
a(lp2785
a(lp2786
a(lp2787
a(lp2788
a(lp2789
a(lp2790
a(lp2791
a(lp2792
a(lp2793
g2
aa(lp2794
a(lp2795
a(lp2796
a(lp2797
a(lp2798
a(lp2799
a(lp2800
a(lp2801
a(lp2802
a(lp2803
g2
aa(lp2804
g2
aa(lp2805
a(lp2806
a(lp2807
a(lp2808
a(lp2809
a(lp2810
a(lp2811
a(lp2812
a(lp2813
a(lp2814
a(lp2815
a(lp2816
a(lp2817
a(lp2818
a(lp2819
a(lp2820
a(lp2821
g2
ag3
aa(lp2822
a(lp2823
a(lp2824
a(lp2825
a(lp2826
g2
aa(lp2827
a(lp2828
a(lp2829
a(lp2830
a(lp2831
a(lp2832
a(lp2833
a(lp2834
a(lp2835
a(lp2836
a(lp2837
a(lp2838
a(lp2839
a(lp2840
a(lp2841
a(lp2842
a(lp2843
a(lp2844
g3
aa(lp2845
a(lp2846
a(lp2847
a(lp2848
g2
aa(lp2849
a(lp2850
a(lp2851
a(lp2852
a(lp2853
g2
ag3
aa(lp2854
g2
ag3
aa(lp2855
g3
aa(lp2856
g2
aa(lp2857
g2
aa(lp2858
g3
aa(lp2859
a(lp2860
g3
aa(lp2861
a(lp2862
a(lp2863
a(lp2864
a(lp2865
a(lp2866
a(lp2867
a(lp2868
a(lp2869
a(lp2870
a(lp2871
a(lp2872
a(lp2873
a(lp2874
a(lp2875
g3
aa(lp2876
a(lp2877
a(lp2878
a(lp2879
a(lp2880
a(lp2881
a(lp2882
a(lp2883
a(lp2884
a(lp2885
a(lp2886
a(lp2887
g2
aa(lp2888
a(lp2889
a(lp2890
a(lp2891
a(lp2892
a(lp2893
a(lp2894
a(lp2895
a(lp2896
a(lp2897
a(lp2898
g2
aa(lp2899
a(lp2900
g3
aa(lp2901
g2
ag3
aa(lp2902
g3
aa(lp2903
a(lp2904
a(lp2905
a(lp2906
a(lp2907
a(lp2908
a(lp2909
a(lp2910
a(lp2911
a(lp2912
a(lp2913
g2
aa(lp2914
a(lp2915
a(lp2916
a(lp2917
a(lp2918
a(lp2919
g3
aa(lp2920
a(lp2921
a(lp2922
g2
ag7
aa(lp2923
a(lp2924
a(lp2925
a(lp2926
a(lp2927
a(lp2928
g2
ag28
aa(lp2929
a(lp2930
a(lp2931
a(lp2932
a(lp2933
g2
aa(lp2934
a(lp2935
a(lp2936
g2
ag7
aa(lp2937
a(lp2938
g2
aa(lp2939
a(lp2940
a(lp2941
g2
aa(lp2942
a(lp2943
g2
ag7
aa(lp2944
g2
aa(lp2945
a(lp2946
a(lp2947
a(lp2948
a(lp2949
a(lp2950
a(lp2951
a(lp2952
a(lp2953
a(lp2954
a(lp2955
a(lp2956
a(lp2957
a(lp2958
a(lp2959
a(lp2960
a(lp2961
a(lp2962
a(lp2963
g2
aa(lp2964
g2
aa(lp2965
g2
aa(lp2966
a(lp2967
a(lp2968
g2
aa(lp2969
a(lp2970
g28
aa(lp2971
a(lp2972
a(lp2973
a(lp2974
a(lp2975
a(lp2976
a(lp2977
a(lp2978
g2
aa(lp2979
a(lp2980
g7
aa(lp2981
a(lp2982
a(lp2983
a(lp2984
a(lp2985
a(lp2986
a(lp2987
a(lp2988
a(lp2989
a(lp2990
a(lp2991
a(lp2992
a(lp2993
a(lp2994
a(lp2995
a(lp2996
a(lp2997
a(lp2998
a(lp2999
g7
aa(lp3000
g2
aa(lp3001
a(lp3002
a(lp3003
g2
aa(lp3004
a(lp3005
a(lp3006
a(lp3007
g2
aa(lp3008
a(lp3009
g7
aa(lp3010
a(lp3011
a(lp3012
a(lp3013
a(lp3014
a(lp3015
a(lp3016
a(lp3017
a(lp3018
a(lp3019
a(lp3020
a(lp3021
g7
aa(lp3022
a(lp3023
a(lp3024
g2
aa(lp3025
g2
aa(lp3026
a(lp3027
g2
aa(lp3028
a(lp3029
a(lp3030
a(lp3031
a(lp3032
a(lp3033
a(lp3034
a(lp3035
a(lp3036
a(lp3037
g2
aa(lp3038
a(lp3039
a(lp3040
a(lp3041
a(lp3042
g2
aa(lp3043
g2
ag247
aa(lp3044
g2
aa(lp3045
a(lp3046
a(lp3047
a(lp3048
a(lp3049
a(lp3050
a(lp3051
a(lp3052
a(lp3053
a(lp3054
g7
aa(lp3055
a(lp3056
a(lp3057
g7
aa(lp3058
a(lp3059
a(lp3060
a(lp3061
g7
aa(lp3062
a(lp3063
a(lp3064
a(lp3065
a(lp3066
a(lp3067
a(lp3068
a(lp3069
a(lp3070
a(lp3071
a(lp3072
a(lp3073
a(lp3074
a(lp3075
a(lp3076
g7
aa(lp3077
a(lp3078
g7
aa(lp3079
g7
aa(lp3080
a(lp3081
a(lp3082
a(lp3083
a(lp3084
a(lp3085
a(lp3086
a(lp3087
g2
aa(lp3088
g7
aa(lp3089
a(lp3090
g2
aa(lp3091
g2
aa(lp3092
g2
ag28
ag7
aa(lp3093
a(lp3094
a(lp3095
a(lp3096
a(lp3097
a(lp3098
g7
aa(lp3099
a(lp3100
a(lp3101
g2
ag7
aa(lp3102
a(lp3103
a(lp3104
a(lp3105
g7
aa(lp3106
a(lp3107
a(lp3108
a(lp3109
g7
aa(lp3110
a(lp3111
g7
aa(lp3112
a(lp3113
g2
aa(lp3114
g7
aa(lp3115
a(lp3116
a(lp3117
a(lp3118
a(lp3119
a(lp3120
a(lp3121
a(lp3122
a(lp3123
a(lp3124
a(lp3125
a(lp3126
a(lp3127
a(lp3128
a(lp3129
a(lp3130
g7
aa(lp3131
g76
ag7
aa(lp3132
a(lp3133
g76
aa(lp3134
g7
aa(lp3135
g7
aa(lp3136
a(lp3137
a(lp3138
a(lp3139
g3
ag7
aa(lp3140
g2
aa(lp3141
a(lp3142
a(lp3143
g2
aa(lp3144
g2
ag247
aa(lp3145
g2
aa(lp3146
g2
aa(lp3147
g7
aa(lp3148
g2
aa(lp3149
a(lp3150
a(lp3151
g2
aa(lp3152
a(lp3153
a(lp3154
a(lp3155
g2
aa(lp3156
a(lp3157
g7
aa(lp3158
a(lp3159
a(lp3160
a(lp3161
a(lp3162
a(lp3163
a(lp3164
a(lp3165
a(lp3166
g7
aa(lp3167
g247
aa(lp3168
g28
aa(lp3169
a(lp3170
g2
aa(lp3171
a(lp3172
a(lp3173
a(lp3174
a(lp3175
a(lp3176
a(lp3177
a(lp3178
a(lp3179
a(lp3180
g2
aa(lp3181
a(lp3182
g7
aa(lp3183
g2
aa(lp3184
a(lp3185
g2
aa(lp3186
g2
ag7
aa(lp3187
g7
aa(lp3188
a(lp3189
a(lp3190
g2
aa(lp3191
a(lp3192
a(lp3193
a(lp3194
a(lp3195
a(lp3196
g76
ag28
aa(lp3197
g2
ag7
aa(lp3198
a(lp3199
g2
aa(lp3200
a(lp3201
a(lp3202
a(lp3203
a(lp3204
a(lp3205
a(lp3206
g7
ag5
aa(lp3207
g7
aa(lp3208
a(lp3209
a(lp3210
a(lp3211
g5
aa(lp3212
a(lp3213
a(lp3214
a(lp3215
a(lp3216
a(lp3217
g2
aa(lp3218
a(lp3219
g2
aa(lp3220
a(lp3221
a(lp3222
a(lp3223
a(lp3224
g7
aa(lp3225
a(lp3226
a(lp3227
a(lp3228
g2
aa(lp3229
g3
aa(lp3230
a(lp3231
a(lp3232
a(lp3233
a(lp3234
a(lp3235
a(lp3236
a(lp3237
a(lp3238
a(lp3239
a(lp3240
a(lp3241
a(lp3242
a(lp3243
a(lp3244
a(lp3245
a(lp3246
g2
aa(lp3247
a(lp3248
a(lp3249
a(lp3250
g2
aa(lp3251
a(lp3252
a(lp3253
a(lp3254
a(lp3255
a(lp3256
g5
aa(lp3257
a(lp3258
a(lp3259
a(lp3260
a(lp3261
a(lp3262
a(lp3263
a(lp3264
a(lp3265
a(lp3266
g28
aa(lp3267
a(lp3268
a(lp3269
a(lp3270
a(lp3271
a(lp3272
a(lp3273
a(lp3274
a(lp3275
a(lp3276
a(lp3277
a(lp3278
g28
aa(lp3279
a(lp3280
a(lp3281
a(lp3282
a(lp3283
a(lp3284
g2
aa(lp3285
g2
aa(lp3286
g7
aa(lp3287
g2
aa(lp3288
a(lp3289
a(lp3290
g2
aa(lp3291
g76
ag5
aa(lp3292
a(lp3293
a(lp3294
g7
aa(lp3295
a(lp3296
a(lp3297
a(lp3298
g76
aa(lp3299
a(lp3300
a(lp3301
a(lp3302
a(lp3303
g3
ag7
aa(lp3304
a(lp3305
g2
ag7
aa(lp3306
g2
ag7
aa(lp3307
g2
ag3
ag7
aa(lp3308
g7
aa(lp3309
g2
aa(lp3310
a(lp3311
a(lp3312
a(lp3313
a(lp3314
a(lp3315
a(lp3316
a(lp3317
g2
aa(lp3318
a(lp3319
g2
aa(lp3320
g3
aa(lp3321
g3
aa(lp3322
a(lp3323
g2
aa(lp3324
a(lp3325
a(lp3326
g2
aa(lp3327
a(lp3328
a(lp3329
a(lp3330
g2
ag7
aa(lp3331
a(lp3332
g76
ag5
aa(lp3333
g2
aa(lp3334
a(lp3335
g2
aa(lp3336
a(lp3337
a(lp3338
a(lp3339
a(lp3340
a(lp3341
a(lp3342
a(lp3343
a(lp3344
g3
aa(lp3345
a(lp3346
a(lp3347
a(lp3348
a(lp3349
a(lp3350
a(lp3351
a(lp3352
g28
aa(lp3353
a(lp3354
g2
aa(lp3355
g2
aa(lp3356
a(lp3357
a(lp3358
a(lp3359
a(lp3360
a(lp3361
a(lp3362
a(lp3363
a(lp3364
a(lp3365
a(lp3366
a(lp3367
a(lp3368
a(lp3369
a(lp3370
a(lp3371
g2
aa(lp3372
a(lp3373
a(lp3374
a(lp3375
g2
aa(lp3376
a(lp3377
g5
aa(lp3378
a(lp3379
a(lp3380
a(lp3381
a(lp3382
a(lp3383
a(lp3384
a(lp3385
a(lp3386
a(lp3387
a(lp3388
a(lp3389
a(lp3390
a(lp3391
a(lp3392
a(lp3393
a(lp3394
a(lp3395
a(lp3396
a(lp3397
a(lp3398
a(lp3399
a(lp3400
a(lp3401
a(lp3402
a(lp3403
a(lp3404
a(lp3405
a(lp3406
a(lp3407
a(lp3408
a(lp3409
a(lp3410
a(lp3411
a(lp3412
a(lp3413
a(lp3414
a(lp3415
a(lp3416
a(lp3417
a(lp3418
a(lp3419
a(lp3420
a(lp3421
a(lp3422
a(lp3423
a(lp3424
a(lp3425
a(lp3426
a(lp3427
a(lp3428
a(lp3429
a(lp3430
a(lp3431
a(lp3432
a(lp3433
a(lp3434
a(lp3435
a(lp3436
a(lp3437
a(lp3438
a(lp3439
a(lp3440
a(lp3441
a(lp3442
a(lp3443
a(lp3444
a(lp3445
a(lp3446
g3
aa(lp3447
a(lp3448
a(lp3449
a(lp3450
a(lp3451
a(lp3452
a(lp3453
a(lp3454
a(lp3455
a(lp3456
a(lp3457
a(lp3458
a(lp3459
g10
aa(lp3460
g10
aa(lp3461
a(lp3462
a(lp3463
g5
aa(lp3464
a(lp3465
a(lp3466
a(lp3467
a(lp3468
a(lp3469
a(lp3470
a(lp3471
a(lp3472
a(lp3473
a(lp3474
g7
aa(lp3475
g76
aa(lp3476
a(lp3477
a(lp3478
a(lp3479
a(lp3480
a(lp3481
a(lp3482
a(lp3483
a(lp3484
a(lp3485
a(lp3486
a(lp3487
a(lp3488
a(lp3489
a(lp3490
a(lp3491
a(lp3492
a(lp3493
g2
aa(lp3494
g2
aa(lp3495
a(lp3496
g2
ag247
aa(lp3497
g2
aa(lp3498
g2
aa(lp3499
g2
aa(lp3500
a(lp3501
g2
aa(lp3502
g2
aa(lp3503
a(lp3504
a(lp3505
a(lp3506
a(lp3507
a(lp3508
a(lp3509
a(lp3510
a(lp3511
a(lp3512
a(lp3513
a(lp3514
g2
aa(lp3515
a(lp3516
a(lp3517
g2
aa(lp3518
g2
aa(lp3519
a(lp3520
a(lp3521
g2
aa(lp3522
g2
aa(lp3523
g2
aa(lp3524
g2
aa(lp3525
g2
aa(lp3526
g2
aa(lp3527
a(lp3528
a(lp3529
a(lp3530
a(lp3531
a(lp3532
a(lp3533
a(lp3534
g2
ag3
aa(lp3535
g2
ag7
aa(lp3536
g2
ag7
aa(lp3537
g2
ag3
ag7
aa(lp3538
g7
aa(lp3539
g2
aa(lp3540
a(lp3541
a(lp3542
a(lp3543
g2
aa(lp3544
g2
aa(lp3545
g2
ag3
aa(lp3546
a(lp3547
g2
aa(lp3548
g2
aa(lp3549
g486
ag2
aa(lp3550
a(lp3551
a(lp3552
a(lp3553
g2
aa(lp3554
g2
aa(lp3555
a(lp3556
a(lp3557
a(lp3558
a(lp3559
a(lp3560
a(lp3561
a(lp3562
a(lp3563
a(lp3564
a(lp3565
a(lp3566
a(lp3567
a(lp3568
a(lp3569
a(lp3570
a(lp3571
a(lp3572
a(lp3573
a(lp3574
a(lp3575
a(lp3576
a(lp3577
a(lp3578
a(lp3579
a(lp3580
a(lp3581
a(lp3582
a(lp3583
g2
aa(lp3584
g2
aa(lp3585
g2
aa(lp3586
a(lp3587
a(lp3588
g2
aa(lp3589
a(lp3590
a(lp3591
a(lp3592
a(lp3593
a(lp3594
a(lp3595
a(lp3596
a(lp3597
a(lp3598
a(lp3599
a(lp3600
a(lp3601
a(lp3602
g2
aa(lp3603
a(lp3604
a(lp3605
a(lp3606
a(lp3607
a(lp3608
a(lp3609
a(lp3610
a(lp3611
a(lp3612
a(lp3613
g2
aa(lp3614
a(lp3615
a(lp3616
a(lp3617
a(lp3618
a(lp3619
a(lp3620
g2
aa(lp3621
a(lp3622
a(lp3623
g2
aa(lp3624
a(lp3625
g2
aa(lp3626
a(lp3627
g2
aa(lp3628
a(lp3629
a(lp3630
a(lp3631
a(lp3632
g3
aa(lp3633
a(lp3634
a(lp3635
a(lp3636
a(lp3637
a(lp3638
a(lp3639
a(lp3640
a(lp3641
a(lp3642
a(lp3643
a(lp3644
a(lp3645
g2
aa(lp3646
a(lp3647
a(lp3648
a(lp3649
a(lp3650
a(lp3651
a(lp3652
a(lp3653
g2
aa(lp3654
g28
aa(lp3655
a(lp3656
a(lp3657
a(lp3658
a(lp3659
a(lp3660
a(lp3661
g2
aa(lp3662
g2
aa(lp3663
a(lp3664
a(lp3665
a(lp3666
a(lp3667
a(lp3668
a(lp3669
a(lp3670
a(lp3671
g2
aa(lp3672
a(lp3673
a(lp3674
a(lp3675
a(lp3676
g2
aa(lp3677
g2
aa(lp3678
a(lp3679
a(lp3680
a(lp3681
a(lp3682
a(lp3683
a(lp3684
a(lp3685
a(lp3686
a(lp3687
g2
aa(lp3688
g7
aa(lp3689
a(lp3690
a(lp3691
a(lp3692
a(lp3693
a(lp3694
a(lp3695
a(lp3696
a(lp3697
a(lp3698
a(lp3699
a(lp3700
a(lp3701
a(lp3702
a(lp3703
a(lp3704
a(lp3705
a(lp3706
a(lp3707
a(lp3708
a(lp3709
g2
aa(lp3710
a(lp3711
g247
aa(lp3712
g2
aa(lp3713
g2
aa(lp3714
g2
aa(lp3715
g2
aa(lp3716
g2
aa(lp3717
g2
aa(lp3718
g2
aa(lp3719
g2
aa(lp3720
a(lp3721
a(lp3722
a(lp3723
a(lp3724
a(lp3725
a(lp3726
a(lp3727
g3
aa(lp3728
g2
aa(lp3729
a(lp3730
g2
aa(lp3731
g2
aa(lp3732
g28
aa(lp3733
g7
aa(lp3734
a(lp3735
g2
aa(lp3736
g2
aa(lp3737
g2
aa(lp3738
g2
aa(lp3739
a(lp3740
a(lp3741
a(lp3742
a(lp3743
g3
aa(lp3744
a(lp3745
g2
aa(lp3746
g2
aa(lp3747
g2
ag7
aa(lp3748
g2
ag7
aa(lp3749
g3
ag7
aa(lp3750
g3
aa(lp3751
g2
ag3
aa(lp3752
a(lp3753
g2
ag3
aa(lp3754
g2
aa(lp3755
g2
ag3
aa(lp3756
g2
aa(lp3757
g2
ag3
aa(lp3758
a(lp3759
a(lp3760
a(lp3761
g3
aa(lp3762
g2
aa(lp3763
a(lp3764
g3
aa(lp3765
g2
aa(lp3766
a(lp3767
a(lp3768
g2
aa(lp3769
a(lp3770
a(lp3771
g3
ag7
aa(lp3772
a(lp3773
a(lp3774
a(lp3775
a(lp3776
a(lp3777
a(lp3778
a(lp3779
a(lp3780
a(lp3781
a(lp3782
a(lp3783
a(lp3784
a(lp3785
g2
aa(lp3786
a(lp3787
a(lp3788
g3
aa(lp3789
g2
aa(lp3790
a(lp3791
a(lp3792
a(lp3793
a(lp3794
a(lp3795
g3
aa(lp3796
a(lp3797
a(lp3798
g7
aa(lp3799
g2
aa(lp3800
g2
aa(lp3801
g2
aa(lp3802
g2
aa(lp3803
g7
aa(lp3804
a(lp3805
a(lp3806
a(lp3807
a(lp3808
a(lp3809
a(lp3810
a(lp3811
a(lp3812
a(lp3813
g3
aa(lp3814
a(lp3815
g3
ag5
aa(lp3816
g2
ag5
aa(lp3817
a(lp3818
a(lp3819
a(lp3820
a(lp3821
a(lp3822
a(lp3823
a(lp3824
a(lp3825
a(lp3826
a(lp3827
a(lp3828
g2
aa(lp3829
g3
aa(lp3830
g2
aa(lp3831
g2
aa(lp3832
a(lp3833
a(lp3834
a(lp3835
a(lp3836
a(lp3837
a(lp3838
g3
aa(lp3839
g3
ag7
ag5
aa(lp3840
g3
aa(lp3841
g3
aa(lp3842
g3
aa(lp3843
g7
aa(lp3844
a(lp3845
a(lp3846
a(lp3847
g5
aa(lp3848
a(lp3849
a(lp3850
g7
aa(lp3851
a(lp3852
a(lp3853
a(lp3854
a(lp3855
a(lp3856
a(lp3857
g2
aa(lp3858
a(lp3859
a(lp3860
a(lp3861
g3
ag7
aa(lp3862
a(lp3863
a(lp3864
a(lp3865
g7
aa(lp3866
a(lp3867
a(lp3868
g2
aa(lp3869
a(lp3870
a(lp3871
a(lp3872
a(lp3873
a(lp3874
a(lp3875
g7
aa(lp3876
a(lp3877
a(lp3878
a(lp3879
a(lp3880
a(lp3881
a(lp3882
g247
aa(lp3883
g3
ag7
aa(lp3884
g3
aa(lp3885
a(lp3886
g3
aa(lp3887
a(lp3888
a(lp3889
a(lp3890
g7
aa(lp3891
a(lp3892
a(lp3893
g3
aa(lp3894
g7
aa(lp3895
a(lp3896
a(lp3897
a(lp3898
a(lp3899
a(lp3900
a(lp3901
g3
aa(lp3902
g2
aa(lp3903
g3
ag5
aa(lp3904
a(lp3905
g3
aa(lp3906
a(lp3907
a(lp3908
a(lp3909
g5
aa(lp3910
a(lp3911
a(lp3912
a(lp3913
a(lp3914
a(lp3915
g2
aa(lp3916
g2
aa(lp3917
a(lp3918
a(lp3919
g7
aa(lp3920
a(lp3921
a(lp3922
a(lp3923
a(lp3924
g3
ag5
aa(lp3925
a(lp3926
a(lp3927
a(lp3928
g3
aa(lp3929
a(lp3930
a(lp3931
a(lp3932
g2
aa(lp3933
a(lp3934
a(lp3935
a(lp3936
a(lp3937
a(lp3938
a(lp3939
a(lp3940
a(lp3941
a(lp3942
a(lp3943
g5
aa(lp3944
a(lp3945
a(lp3946
a(lp3947
a(lp3948
a(lp3949
a(lp3950
a(lp3951
g2
aa(lp3952
g2
aa(lp3953
g3
aa(lp3954
g3
aa(lp3955
g2
aa(lp3956
a(lp3957
a(lp3958
g2
aa(lp3959
a(lp3960
g247
aa(lp3961
g3
aa(lp3962
a(lp3963
g2
ag5
aa(lp3964
a(lp3965
g2
aa(lp3966
g7
aa(lp3967
a(lp3968
a(lp3969
a(lp3970
a(lp3971
a(lp3972
a(lp3973
g3
ag5
aa(lp3974
a(lp3975
g2
ag5
aa(lp3976
g2
aa(lp3977
a(lp3978
a(lp3979
g28
aa(lp3980
a(lp3981
a(lp3982
g2
aa(lp3983
a(lp3984
g2
ag3
aa(lp3985
g2
ag28
ag7
aa(lp3986
g3
aa(lp3987
g2
aa(lp3988
a(lp3989
a(lp3990
a(lp3991
a(lp3992
g3
aa(lp3993
g2
ag3
aa(lp3994
a(lp3995
g2
aa(lp3996
g2
ag3
aa(lp3997
g2
ag7
aa(lp3998
g2
ag7
aa(lp3999
g3
ag7
aa(lp4000
g3
aa(lp4001
g2
ag3
aa(lp4002
g2
aa(lp4003
g3
aa(lp4004
g2
aa(lp4005
a(lp4006
a(lp4007
a(lp4008
g2
ag5
aa(lp4009
a(lp4010
g2
ag3
aa(lp4011
g2
aa(lp4012
g5
aa(lp4013
g3
aa(lp4014
g2
aa(lp4015
g2
aa(lp4016
a(lp4017
a(lp4018
a(lp4019
g3
aa(lp4020
a(lp4021
a(lp4022
g2
aa(lp4023
g2
aa(lp4024
a(lp4025
g3
aa(lp4026
a(lp4027
a(lp4028
a(lp4029
a(lp4030
a(lp4031
a(lp4032
a(lp4033
a(lp4034
g3
aa(lp4035
a(lp4036
a(lp4037
a(lp4038
g2
ag3
ag5
aa(lp4039
g2
ag7
aa(lp4040
a(lp4041
g7
aa(lp4042
g2
aa(lp4043
a(lp4044
a(lp4045
a(lp4046
g7
aa(lp4047
a(lp4048
g2
aa(lp4049
a(lp4050
g2
ag5
aa(lp4051
a(lp4052
g2
aa(lp4053
a(lp4054
a(lp4055
a(lp4056
a(lp4057
a(lp4058
a(lp4059
a(lp4060
g2
aa(lp4061
a(lp4062
a(lp4063
g2
aa(lp4064
a(lp4065
a(lp4066
a(lp4067
a(lp4068
g3
aa(lp4069
g3
aa(lp4070
a(lp4071
a(lp4072
g3
aa(lp4073
a(lp4074
a(lp4075
a(lp4076
g2
aa(lp4077
g7
aa(lp4078
g2
aa(lp4079
a(lp4080
a(lp4081
a(lp4082
a(lp4083
a(lp4084
g2
aa(lp4085
a(lp4086
a(lp4087
a(lp4088
a(lp4089
g5
aa(lp4090
a(lp4091
a(lp4092
a(lp4093
a(lp4094
a(lp4095
a(lp4096
a(lp4097
a(lp4098
a(lp4099
g3
aa(lp4100
a(lp4101
a(lp4102
g2
aa(lp4103
a(lp4104
g5
aa(lp4105
a(lp4106
a(lp4107
g3
aa(lp4108
a(lp4109
a(lp4110
a(lp4111
g2
aa(lp4112
g5
aa(lp4113
a(lp4114
a(lp4115
a(lp4116
a(lp4117
g2
aa(lp4118
a(lp4119
a(lp4120
a(lp4121
a(lp4122
a(lp4123
a(lp4124
a(lp4125
a(lp4126
g5
aa(lp4127
a(lp4128
a(lp4129
a(lp4130
a(lp4131
a(lp4132
a(lp4133
a(lp4134
a(lp4135
a(lp4136
g5
aa(lp4137
a(lp4138
a(lp4139
a(lp4140
a(lp4141
a(lp4142
a(lp4143
a(lp4144
a(lp4145
a(lp4146
g5
aa(lp4147
a(lp4148
a(lp4149
a(lp4150
a(lp4151
a(lp4152
a(lp4153
a(lp4154
a(lp4155
a(lp4156
a(lp4157
a(lp4158
g2
aa(lp4159
g2
ag5
aa(lp4160
a(lp4161
a(lp4162
a(lp4163
a(lp4164
g2
aa(lp4165
a(lp4166
a(lp4167
a(lp4168
a(lp4169
g5
aa(lp4170
a(lp4171
a(lp4172
a(lp4173
a(lp4174
a(lp4175
a(lp4176
a(lp4177
g2
aa(lp4178
a(lp4179
a(lp4180
g2
aa(lp4181
g2
aa(lp4182
a(lp4183
g2
aa(lp4184
a(lp4185
a(lp4186
g5
aa(lp4187
g7
aa(lp4188
a(lp4189
a(lp4190
a(lp4191
a(lp4192
a(lp4193
a(lp4194
a(lp4195
a(lp4196
a(lp4197
a(lp4198
a(lp4199
a(lp4200
a(lp4201
a(lp4202
a(lp4203
a(lp4204
a(lp4205
a(lp4206
a(lp4207
a(lp4208
a(lp4209
a(lp4210
a(lp4211
a(lp4212
a(lp4213
a(lp4214
g2
aa(lp4215
a(lp4216
g2
aa(lp4217
g2
aa(lp4218
g2
ag3
aa(lp4219
g2
aa(lp4220
g2
aa(lp4221
g2
aa(lp4222
a(lp4223
a(lp4224
a(lp4225
g2
aa(lp4226
a(lp4227
g2
aa(lp4228
g2
aa(lp4229
g2
ag7
ag5
aa(lp4230
g2
aa(lp4231
g2
aa(lp4232
g2
aa(lp4233
g2
aa(lp4234
g5
aa(lp4235
g2
aa(lp4236
g2
aa(lp4237
a(lp4238
a(lp4239
a(lp4240
g2
aa(lp4241
g2
aa(lp4242
a(lp4243
a(lp4244
g2
ag5
aa(lp4245
g2
aa(lp4246
g2
aa(lp4247
a(lp4248
g2
aa(lp4249
g2
aa(lp4250
a(lp4251
g2
aa(lp4252
a(lp4253
a(lp4254
a(lp4255
a(lp4256
a(lp4257
a(lp4258
a(lp4259
g3
aa(lp4260
g76
ag2
aa(lp4261
g2
aa(lp4262
a(lp4263
g2
aa(lp4264
g2
ag7
aa(lp4265
g2
ag3
ag7
aa(lp4266
g7
aa(lp4267
g2
aa(lp4268
a(lp4269
a(lp4270
a(lp4271
a(lp4272
a(lp4273
g2
aa(lp4274
g2
aa(lp4275
g2
aa(lp4276
a(lp4277
g2
aa(lp4278
a(lp4279
a(lp4280
g2
aa(lp4281
g2
aa(lp4282
a(lp4283
g2
aa(lp4284
a(lp4285
a(lp4286
a(lp4287
a(lp4288
a(lp4289
g2
aa(lp4290
g2
aa(lp4291
a(lp4292
a(lp4293
a(lp4294
a(lp4295
a(lp4296
g2
aa(lp4297
g76
aa(lp4298
a(lp4299
g2
aa(lp4300
g76
ag2
aa(lp4301
g2
aa(lp4302
a(lp4303
a(lp4304
a(lp4305
g2
aa(lp4306
g2
aa(lp4307
a(lp4308
g2
aa(lp4309
a(lp4310
a(lp4311
a(lp4312
a(lp4313
a(lp4314
a(lp4315
a(lp4316
a(lp4317
a(lp4318
a(lp4319
a(lp4320
a(lp4321
a(lp4322
a(lp4323
g2
aa(lp4324
a(lp4325
a(lp4326
a(lp4327
a(lp4328
a(lp4329
a(lp4330
a(lp4331
a(lp4332
a(lp4333
a(lp4334
g2
ag3
aa(lp4335
a(lp4336
g2
ag3
aa(lp4337
a(lp4338
a(lp4339
g2
aa(lp4340
a(lp4341
a(lp4342
a(lp4343
a(lp4344
a(lp4345
a(lp4346
g10
aa(lp4347
a(lp4348
a(lp4349
a(lp4350
g2
aa(lp4351
a(lp4352
a(lp4353
a(lp4354
a(lp4355
a(lp4356
a(lp4357
g2
aa(lp4358
a(lp4359
a(lp4360
a(lp4361
g76
aa(lp4362
a(lp4363
g76
aa(lp4364
a(lp4365
a(lp4366
a(lp4367
a(lp4368
a(lp4369
a(lp4370
g76
ag2
aa(lp4371
a(lp4372
a(lp4373
a(lp4374
a(lp4375
a(lp4376
a(lp4377
a(lp4378
a(lp4379
a(lp4380
a(lp4381
a(lp4382
g2
aa(lp4383
a(lp4384
a(lp4385
a(lp4386
a(lp4387
a(lp4388
a(lp4389
g2
aa(lp4390
g2
aa(lp4391
g2
ag28
aa(lp4392
g2
aa(lp4393
g2
aa(lp4394
g2
aa(lp4395
g2
aa(lp4396
a(lp4397
g2
ag3
aa(lp4398
g2
aa(lp4399
g2
aa(lp4400
g2
ag7
aa(lp4401
g2
aa(lp4402
g10
aa(lp4403
g2
aa(lp4404
g28
aa(lp4405
a(lp4406
g3
aa(lp4407
g2
ag10
aa(lp4408
a(lp4409
a(lp4410
a(lp4411
g2
aa(lp4412
g2
aa(lp4413
g2
aa(lp4414
g2
aa(lp4415
a(lp4416
a(lp4417
g2
aa(lp4418
a(lp4419
g2
aa(lp4420
g2
aa(lp4421
g2
aa(lp4422
a(lp4423
a(lp4424
g2
aa(lp4425
g2
ag7
aa(lp4426
a(lp4427
a(lp4428
a(lp4429
a(lp4430
a(lp4431
a(lp4432
a(lp4433
a(lp4434
a(lp4435
g2
ag7
aa(lp4436
a(lp4437
a(lp4438
a(lp4439
a(lp4440
a(lp4441
a(lp4442
a(lp4443
a(lp4444
a(lp4445
a(lp4446
a(lp4447
a(lp4448
a(lp4449
a(lp4450
a(lp4451
a(lp4452
a(lp4453
a(lp4454
a(lp4455
g2
aa(lp4456
a(lp4457
g7
aa(lp4458
a(lp4459
a(lp4460
a(lp4461
a(lp4462
a(lp4463
a(lp4464
a(lp4465
a(lp4466
g2
aa(lp4467
a(lp4468
g7
aa(lp4469
a(lp4470
a(lp4471
a(lp4472
a(lp4473
a(lp4474
a(lp4475
a(lp4476
g2
aa(lp4477
a(lp4478
a(lp4479
a(lp4480
a(lp4481
a(lp4482
a(lp4483
a(lp4484
a(lp4485
a(lp4486
g2
aa(lp4487
a(lp4488
a(lp4489
a(lp4490
a(lp4491
a(lp4492
a(lp4493
a(lp4494
a(lp4495
a(lp4496
a(lp4497
a(lp4498
a(lp4499
a(lp4500
a(lp4501
a(lp4502
a(lp4503
a(lp4504
a(lp4505
a(lp4506
a(lp4507
a(lp4508
a(lp4509
a(lp4510
a(lp4511
a(lp4512
a(lp4513
g2
aa(lp4514
a(lp4515
a(lp4516
a(lp4517
a(lp4518
a(lp4519
g28
aa(lp4520
a(lp4521
a(lp4522
a(lp4523
a(lp4524
a(lp4525
g28
aa(lp4526
a(lp4527
a(lp4528
a(lp4529
a(lp4530
a(lp4531
a(lp4532
a(lp4533
a(lp4534
g2
aa(lp4535
a(lp4536
a(lp4537
a(lp4538
a(lp4539
a(lp4540
a(lp4541
a(lp4542
a(lp4543
a(lp4544
g7
aa(lp4545
a(lp4546
a(lp4547
g2
aa(lp4548
a(lp4549
a(lp4550
a(lp4551
g28
ag342
aa(lp4552
g2
aa(lp4553
a(lp4554
g76
aa(lp4555
a(lp4556
g2
aa(lp4557
a(lp4558
a(lp4559
a(lp4560
a(lp4561
g7
aa(lp4562
a(lp4563
g2
aa(lp4564
a(lp4565
a(lp4566
g7
aa(lp4567
a(lp4568
a(lp4569
g2
aa(lp4570
a(lp4571
g247
aa(lp4572
a(lp4573
a(lp4574
a(lp4575
a(lp4576
a(lp4577
g7
aa(lp4578
a(lp4579
a(lp4580
a(lp4581
a(lp4582
a(lp4583
a(lp4584
g2
ag7
aa(lp4585
a(lp4586
a(lp4587
g7
aa(lp4588
a(lp4589
g7
aa(lp4590
a(lp4591
a(lp4592
a(lp4593
a(lp4594
g2
aa(lp4595
a(lp4596
a(lp4597
a(lp4598
a(lp4599
a(lp4600
a(lp4601
a(lp4602
a(lp4603
a(lp4604
a(lp4605
a(lp4606
a(lp4607
a(lp4608
a(lp4609
a(lp4610
a(lp4611
a(lp4612
a(lp4613
a(lp4614
a(lp4615
a(lp4616
g2
aa(lp4617
a(lp4618
a(lp4619
a(lp4620
a(lp4621
a(lp4622
a(lp4623
a(lp4624
a(lp4625
a(lp4626
a(lp4627
a(lp4628
a(lp4629
a(lp4630
a(lp4631
a(lp4632
g7
aa(lp4633
g2
ag3
aa(lp4634
g2
ag3
aa(lp4635
g2
ag3
ag7
aa(lp4636
g3
aa(lp4637
g3
aa(lp4638
a(lp4639
g2
aa(lp4640
g2
aa(lp4641
g2
aa(lp4642
g2
aa(lp4643
g2
aa(lp4644
g2
aa(lp4645
g2
aa(lp4646
a(lp4647
a(lp4648
g2
aa(lp4649
a(lp4650
a(lp4651
a(lp4652
g3
aa(lp4653
a(lp4654
g5
aa(lp4655
a(lp4656
a(lp4657
a(lp4658
a(lp4659
g2
aa(lp4660
g2
aa(lp4661
g10
aa(lp4662
a(lp4663
a(lp4664
a(lp4665
a(lp4666
g2
aa(lp4667
a(lp4668
a(lp4669
g10
aa(lp4670
g3
aa(lp4671
g2
aa(lp4672
a(lp4673
a(lp4674
g2
aa(lp4675
a(lp4676
a(lp4677
a(lp4678
a(lp4679
a(lp4680
g2
aa(lp4681
g2
aa(lp4682
a(lp4683
a(lp4684
a(lp4685
a(lp4686
a(lp4687
a(lp4688
a(lp4689
g5
aa(lp4690
g2
aa(lp4691
a(lp4692
a(lp4693
a(lp4694
g7
aa(lp4695
g7
aa(lp4696
a(lp4697
a(lp4698
a(lp4699
a(lp4700
a(lp4701
a(lp4702
a(lp4703
a(lp4704
a(lp4705
a(lp4706
a(lp4707
g3
aa(lp4708
a(lp4709
a(lp4710
a(lp4711
g2
aa(lp4712
g10
aa(lp4713
a(lp4714
a(lp4715
a(lp4716
a(lp4717
a(lp4718
a(lp4719
a(lp4720
a(lp4721
a(lp4722
a(lp4723
a(lp4724
a(lp4725
a(lp4726
a(lp4727
a(lp4728
a(lp4729
a(lp4730
a(lp4731
a(lp4732
a(lp4733
a(lp4734
g2
aa(lp4735
a(lp4736
a(lp4737
a(lp4738
a(lp4739
a(lp4740
a(lp4741
a(lp4742
a(lp4743
a(lp4744
a(lp4745
a(lp4746
a(lp4747
a(lp4748
a(lp4749
a(lp4750
a(lp4751
a(lp4752
a(lp4753
a(lp4754
a(lp4755
a(lp4756
a(lp4757
a(lp4758
a(lp4759
g2
aa(lp4760
a(lp4761
g2
aa(lp4762
a(lp4763
a(lp4764
a(lp4765
a(lp4766
a(lp4767
a(lp4768
a(lp4769
a(lp4770
a(lp4771
a(lp4772
a(lp4773
a(lp4774
a(lp4775
a(lp4776
a(lp4777
a(lp4778
a(lp4779
a(lp4780
a(lp4781
g2
aa(lp4782
g2
ag7
aa(lp4783
a(lp4784
a(lp4785
a(lp4786
a(lp4787
a(lp4788
a(lp4789
a(lp4790
a(lp4791
g3
aa(lp4792
a(lp4793
a(lp4794
a(lp4795
a(lp4796
a(lp4797
a(lp4798
g2
aa(lp4799
g2
aa(lp4800
a(lp4801
a(lp4802
a(lp4803
a(lp4804
a(lp4805
a(lp4806
g247
aa(lp4807
a(lp4808
a(lp4809
a(lp4810
a(lp4811
a(lp4812
g2
aa(lp4813
a(lp4814
a(lp4815
a(lp4816
a(lp4817
a(lp4818
a(lp4819
a(lp4820
a(lp4821
a(lp4822
a(lp4823
a(lp4824
a(lp4825
a(lp4826
a(lp4827
a(lp4828
a(lp4829
a(lp4830
a(lp4831
a(lp4832
a(lp4833
a(lp4834
a(lp4835
a(lp4836
a(lp4837
a(lp4838
a(lp4839
a(lp4840
a(lp4841
a(lp4842
g2
aa(lp4843
a(lp4844
a(lp4845
a(lp4846
a(lp4847
a(lp4848
a(lp4849
a(lp4850
a(lp4851
a(lp4852
a(lp4853
a(lp4854
a(lp4855
a(lp4856
a(lp4857
a(lp4858
a(lp4859
a(lp4860
a(lp4861
a(lp4862
a(lp4863
a(lp4864
a(lp4865
a(lp4866
g3
aa(lp4867
a(lp4868
a(lp4869
a(lp4870
a(lp4871
a(lp4872
a(lp4873
a(lp4874
a(lp4875
a(lp4876
g2
aa(lp4877
a(lp4878
a(lp4879
a(lp4880
a(lp4881
a(lp4882
g10
aa(lp4883
a(lp4884
a(lp4885
a(lp4886
a(lp4887
a(lp4888
a(lp4889
a(lp4890
a(lp4891
a(lp4892
a(lp4893
a(lp4894
a(lp4895
g2
aa(lp4896
a(lp4897
a(lp4898
a(lp4899
a(lp4900
a(lp4901
g2
aa(lp4902
g2
aa(lp4903
g2
aa(lp4904
a(lp4905
g2
aa(lp4906
a(lp4907
g2
aa(lp4908
a(lp4909
a(lp4910
a(lp4911
a(lp4912
a(lp4913
a(lp4914
a(lp4915
g2
aa(lp4916
a(lp4917
a(lp4918
a(lp4919
a(lp4920
g2
aa(lp4921
a(lp4922
a(lp4923
a(lp4924
a(lp4925
a(lp4926
a(lp4927
a(lp4928
a(lp4929
a(lp4930
g2
ag3
aa(lp4931
g2
ag3
aa(lp4932
g2
ag3
ag7
aa(lp4933
g3
aa(lp4934
g3
aa(lp4935
a(lp4936
g2
aa(lp4937
g2
aa(lp4938
g2
aa(lp4939
g2
aa(lp4940
g2
aa(lp4941
g2
aa(lp4942
g2
aa(lp4943
a(lp4944
a(lp4945
g2
aa(lp4946
a(lp4947
a(lp4948
a(lp4949
g3
aa(lp4950
a(lp4951
g5
aa(lp4952
a(lp4953
a(lp4954
a(lp4955
a(lp4956
g2
aa(lp4957
g2
aa(lp4958
g10
aa(lp4959
a(lp4960
a(lp4961
a(lp4962
a(lp4963
g2
aa(lp4964
a(lp4965
a(lp4966
g10
aa(lp4967
g3
aa(lp4968
g2
aa(lp4969
a(lp4970
a(lp4971
g2
aa(lp4972
a(lp4973
a(lp4974
a(lp4975
a(lp4976
a(lp4977
g2
aa(lp4978
g2
aa(lp4979
a(lp4980
a(lp4981
a(lp4982
a(lp4983
a(lp4984
a(lp4985
a(lp4986
g5
aa(lp4987
g2
aa(lp4988
a(lp4989
a(lp4990
a(lp4991
g7
aa(lp4992
g7
aa(lp4993
a(lp4994
a(lp4995
a(lp4996
a(lp4997
a(lp4998
a(lp4999
a(lp5000
a(lp5001
a(lp5002
a(lp5003
a(lp5004
g3
aa(lp5005
a(lp5006
a(lp5007
a(lp5008
g2
aa(lp5009
g10
aa(lp5010
a(lp5011
a(lp5012
a(lp5013
a(lp5014
a(lp5015
a(lp5016
a(lp5017
a(lp5018
a(lp5019
a(lp5020
a(lp5021
a(lp5022
a(lp5023
a(lp5024
a(lp5025
a(lp5026
a(lp5027
a(lp5028
a(lp5029
a(lp5030
a(lp5031
g2
aa(lp5032
a(lp5033
a(lp5034
a(lp5035
a(lp5036
a(lp5037
a(lp5038
a(lp5039
a(lp5040
a(lp5041
a(lp5042
a(lp5043
a(lp5044
a(lp5045
a(lp5046
a(lp5047
a(lp5048
a(lp5049
a(lp5050
a(lp5051
a(lp5052
a(lp5053
a(lp5054
a(lp5055
a(lp5056
g2
aa(lp5057
a(lp5058
g2
aa(lp5059
a(lp5060
a(lp5061
a(lp5062
a(lp5063
a(lp5064
a(lp5065
a(lp5066
a(lp5067
a(lp5068
a(lp5069
a(lp5070
a(lp5071
a(lp5072
a(lp5073
a(lp5074
a(lp5075
a(lp5076
a(lp5077
a(lp5078
g2
aa(lp5079
g2
ag7
aa(lp5080
a(lp5081
a(lp5082
a(lp5083
a(lp5084
a(lp5085
a(lp5086
a(lp5087
a(lp5088
g3
aa(lp5089
a(lp5090
a(lp5091
a(lp5092
a(lp5093
a(lp5094
a(lp5095
g2
aa(lp5096
g2
aa(lp5097
a(lp5098
a(lp5099
a(lp5100
a(lp5101
a(lp5102
a(lp5103
g247
aa(lp5104
a(lp5105
a(lp5106
a(lp5107
a(lp5108
a(lp5109
g2
aa(lp5110
a(lp5111
a(lp5112
a(lp5113
a(lp5114
a(lp5115
a(lp5116
a(lp5117
a(lp5118
a(lp5119
a(lp5120
a(lp5121
a(lp5122
a(lp5123
a(lp5124
a(lp5125
a(lp5126
a(lp5127
a(lp5128
a(lp5129
a(lp5130
a(lp5131
a(lp5132
a(lp5133
a(lp5134
a(lp5135
a(lp5136
a(lp5137
a(lp5138
a(lp5139
g2
aa(lp5140
a(lp5141
a(lp5142
a(lp5143
a(lp5144
a(lp5145
a(lp5146
a(lp5147
a(lp5148
a(lp5149
a(lp5150
a(lp5151
a(lp5152
a(lp5153
a(lp5154
a(lp5155
a(lp5156
a(lp5157
a(lp5158
a(lp5159
a(lp5160
a(lp5161
a(lp5162
a(lp5163
g3
aa(lp5164
a(lp5165
a(lp5166
a(lp5167
a(lp5168
a(lp5169
a(lp5170
a(lp5171
a(lp5172
a(lp5173
g2
aa(lp5174
a(lp5175
a(lp5176
a(lp5177
a(lp5178
a(lp5179
g10
aa(lp5180
a(lp5181
a(lp5182
a(lp5183
a(lp5184
a(lp5185
a(lp5186
a(lp5187
a(lp5188
a(lp5189
a(lp5190
a(lp5191
a(lp5192
g2
aa(lp5193
a(lp5194
a(lp5195
a(lp5196
a(lp5197
a(lp5198
g2
aa(lp5199
g2
aa(lp5200
g2
aa(lp5201
a(lp5202
g2
aa(lp5203
a(lp5204
g2
aa(lp5205
a(lp5206
a(lp5207
a(lp5208
a(lp5209
a(lp5210
a(lp5211
a(lp5212
g2
aa(lp5213
a(lp5214
a(lp5215
a(lp5216
a(lp5217
g2
aa(lp5218
a(lp5219
a(lp5220
a(lp5221
a(lp5222
a(lp5223
a(lp5224
a(lp5225
a(lp5226
a(lp5227
a(lp5228
a(lp5229
a(lp5230
a(lp5231
a(lp5232
a(lp5233
a(lp5234
a(lp5235
a(lp5236
a(lp5237
a(lp5238
a(lp5239
a(lp5240
a(lp5241
a(lp5242
a(lp5243
a(lp5244
g5
aa(lp5245
g10
ag5
aa(lp5246
a(lp5247
a(lp5248
a(lp5249
g2
aa(lp5250
a(lp5251
a(lp5252
a(lp5253
a(lp5254
a(lp5255
a(lp5256
a(lp5257
a(lp5258
a(lp5259
a(lp5260
a(lp5261
a(lp5262
a(lp5263
a(lp5264
a(lp5265
g2
ag7
aa(lp5266
a(lp5267
a(lp5268
a(lp5269
a(lp5270
a(lp5271
a(lp5272
a(lp5273
a(lp5274
a(lp5275
a(lp5276
a(lp5277
a(lp5278
a(lp5279
a(lp5280
a(lp5281
a(lp5282
a(lp5283
a(lp5284
a(lp5285
a(lp5286
a(lp5287
a(lp5288
a(lp5289
a(lp5290
a(lp5291
a(lp5292
a(lp5293
a(lp5294
a(lp5295
a(lp5296
a(lp5297
a(lp5298
a(lp5299
a(lp5300
a(lp5301
a(lp5302
a(lp5303
a(lp5304
a(lp5305
a(lp5306
a(lp5307
a(lp5308
a(lp5309
g2
aa(lp5310
a(lp5311
a(lp5312
a(lp5313
a(lp5314
a(lp5315
a(lp5316
a(lp5317
a(lp5318
a(lp5319
a(lp5320
a(lp5321
a(lp5322
g5
aa(lp5323
a(lp5324
a(lp5325
a(lp5326
g2
aa(lp5327
g2
aa(lp5328
a(lp5329
g2
aa(lp5330
g2
aa(lp5331
g2
aa(lp5332
g2
aa(lp5333
g2
aa(lp5334
g7
ag247
aa(lp5335
g28
aa(lp5336
a(lp5337
a(lp5338
a(lp5339
a(lp5340
a(lp5341
a(lp5342
a(lp5343
a(lp5344
a(lp5345
a(lp5346
a(lp5347
a(lp5348
a(lp5349
a(lp5350
g2
ag247
aa(lp5351
g2
ag3
aa(lp5352
a(lp5353
g2
ag7
aa(lp5354
a(lp5355
a(lp5356
a(lp5357
a(lp5358
a(lp5359
a(lp5360
a(lp5361
g2
aa(lp5362
g2
aa(lp5363
a(lp5364
g2
aa(lp5365
g2
aa(lp5366
a(lp5367
a(lp5368
g2
aa(lp5369
a(lp5370
a(lp5371
a(lp5372
a(lp5373
a(lp5374
a(lp5375
a(lp5376
a(lp5377
a(lp5378
a(lp5379
a(lp5380
a(lp5381
a(lp5382
a(lp5383
a(lp5384
a(lp5385
a(lp5386
a(lp5387
a(lp5388
a(lp5389
a(lp5390
a(lp5391
a(lp5392
a(lp5393
a(lp5394
a(lp5395
a(lp5396
a(lp5397
g2
aa(lp5398
g2
ag28
aa(lp5399
a(lp5400
g2
aa(lp5401
a(lp5402
a(lp5403
a(lp5404
a(lp5405
a(lp5406
a(lp5407
a(lp5408
a(lp5409
a(lp5410
a(lp5411
a(lp5412
a(lp5413
a(lp5414
a(lp5415
a(lp5416
a(lp5417
a(lp5418
a(lp5419
a(lp5420
a(lp5421
a(lp5422
a(lp5423
a(lp5424
a(lp5425
a(lp5426
a(lp5427
a(lp5428
a(lp5429
g2
aa(lp5430
a(lp5431
g2
aa(lp5432
g2
aa(lp5433
a(lp5434
a(lp5435
a(lp5436
a(lp5437
a(lp5438
a(lp5439
a(lp5440
g10
aa(lp5441
a(lp5442
g5
aa(lp5443
a(lp5444
a(lp5445
a(lp5446
a(lp5447
a(lp5448
a(lp5449
a(lp5450
a(lp5451
g3
ag7
aa(lp5452
g2
ag7
aa(lp5453
g2
ag7
aa(lp5454
g2
ag3
ag7
aa(lp5455
g7
aa(lp5456
a(lp5457
g2
aa(lp5458
a(lp5459
g2
aa(lp5460
a(lp5461
a(lp5462
a(lp5463
a(lp5464
a(lp5465
a(lp5466
a(lp5467
a(lp5468
a(lp5469
g2
aa(lp5470
g2
ag3
aa(lp5471
a(lp5472
a(lp5473
a(lp5474
a(lp5475
a(lp5476
g2
aa(lp5477
a(lp5478
g3
aa(lp5479
g2
aa(lp5480
g2
ag28
aa(lp5481
a(lp5482
g2
aa(lp5483
a(lp5484
a(lp5485
a(lp5486
a(lp5487
g2
aa(lp5488
g2
aa(lp5489
g2
ag3
ag7
aa(lp5490
g2
aa(lp5491
a(lp5492
a(lp5493
g2
aa(lp5494
g3
aa(lp5495
a(lp5496
a(lp5497
g2
aa(lp5498
g7
aa(lp5499
a(lp5500
a(lp5501
a(lp5502
a(lp5503
a(lp5504
a(lp5505
a(lp5506
a(lp5507
a(lp5508
a(lp5509
a(lp5510
a(lp5511
g7
aa(lp5512
g2
aa(lp5513
g2
aa(lp5514
a(lp5515
a(lp5516
a(lp5517
g2
aa(lp5518
a(lp5519
a(lp5520
a(lp5521
a(lp5522
a(lp5523
a(lp5524
a(lp5525
a(lp5526
a(lp5527
a(lp5528
a(lp5529
a(lp5530
g5
aa(lp5531
a(lp5532
a(lp5533
a(lp5534
a(lp5535
a(lp5536
a(lp5537
a(lp5538
a(lp5539
a(lp5540
a(lp5541
a(lp5542
a(lp5543
a(lp5544
a(lp5545
a(lp5546
a(lp5547
a(lp5548
a(lp5549
a(lp5550
a(lp5551
a(lp5552
a(lp5553
a(lp5554
a(lp5555
a(lp5556
a(lp5557
a(lp5558
a(lp5559
a(lp5560
g5
aa(lp5561
a(lp5562
a(lp5563
a(lp5564
a(lp5565
a(lp5566
a(lp5567
a(lp5568
g5
aa(lp5569
a(lp5570
a(lp5571
a(lp5572
a(lp5573
a(lp5574
a(lp5575
a(lp5576
a(lp5577
a(lp5578
a(lp5579
a(lp5580
a(lp5581
a(lp5582
a(lp5583
a(lp5584
a(lp5585
a(lp5586
a(lp5587
a(lp5588
a(lp5589
a(lp5590
a(lp5591
a(lp5592
a(lp5593
a(lp5594
a(lp5595
a(lp5596
g2
aa(lp5597
a(lp5598
a(lp5599
a(lp5600
a(lp5601
a(lp5602
a(lp5603
a(lp5604
a(lp5605
g2
ag3
aa(lp5606
a(lp5607
g2
ag7
aa(lp5608
g3
aa(lp5609
g3
aa(lp5610
a(lp5611
g2
aa(lp5612
g2
ag5
aa(lp5613
g2
aa(lp5614
g2
aa(lp5615
g2
ag3
aa(lp5616
g2
ag3
aa(lp5617
a(lp5618
g2
aa(lp5619
a(lp5620
g2
aa(lp5621
g2
aa(lp5622
g2
aa(lp5623
g2
aa(lp5624
g2
aa(lp5625
g76
aa(lp5626
g2
aa(lp5627
g2
aa(lp5628
a(lp5629
g2
ag7
aa(lp5630
a(lp5631
a(lp5632
g2
aa(lp5633
a(lp5634
g2
aa(lp5635
g2
aa(lp5636
g2
aa(lp5637
a(lp5638
a(lp5639
g2
aa(lp5640
g247
aa(lp5641
a(lp5642
a(lp5643
a(lp5644
a(lp5645
a(lp5646
g2
aa(lp5647
g2
aa(lp5648
a(lp5649
a(lp5650
a(lp5651
a(lp5652
g2
aa(lp5653
a(lp5654
a(lp5655
g2
aa(lp5656
g3
aa(lp5657
a(lp5658
a(lp5659
a(lp5660
g2
aa(lp5661
a(lp5662
g3
aa(lp5663
a(lp5664
a(lp5665
g2
ag247
aa(lp5666
g2
aa(lp5667
a(lp5668
a(lp5669
a(lp5670
a(lp5671
g76
aa(lp5672
g76
aa(lp5673
a(lp5674
a(lp5675
g3
aa(lp5676
a(lp5677
a(lp5678
a(lp5679
g2
aa(lp5680
a(lp5681
a(lp5682
a(lp5683
a(lp5684
g2
aa(lp5685
a(lp5686
g2
aa(lp5687
g2
aa(lp5688
a(lp5689
g2
aa(lp5690
a(lp5691
a(lp5692
a(lp5693
g2
ag342
aa(lp5694
g2
ag342
aa(lp5695
a(lp5696
a(lp5697
g2
aa(lp5698
a(lp5699
a(lp5700
a(lp5701
g2
aa(lp5702
a(lp5703
a(lp5704
a(lp5705
g2
aa(lp5706
a(lp5707
g2
aa(lp5708
a(lp5709
a(lp5710
a(lp5711
g2
aa(lp5712
a(lp5713
g2
aa(lp5714
a(lp5715
a(lp5716
a(lp5717
a(lp5718
a(lp5719
a(lp5720
a(lp5721
a(lp5722
a(lp5723
a(lp5724
a(lp5725
a(lp5726
a(lp5727
g2
aa(lp5728
g3
aa(lp5729
a(lp5730
a(lp5731
a(lp5732
a(lp5733
a(lp5734
a(lp5735
a(lp5736
a(lp5737
a(lp5738
a(lp5739
a(lp5740
a(lp5741
a(lp5742
a(lp5743
a(lp5744
g76
ag7
aa(lp5745
g76
aa(lp5746
a(lp5747
a(lp5748
a(lp5749
a(lp5750
g28
ag7
aa(lp5751
g2
aa(lp5752
a(lp5753
a(lp5754
a(lp5755
a(lp5756
a(lp5757
a(lp5758
a(lp5759
a(lp5760
a(lp5761
g2
aa(lp5762
a(lp5763
a(lp5764
a(lp5765
a(lp5766
a(lp5767
g2
aa(lp5768
a(lp5769
g2
aa(lp5770
a(lp5771
a(lp5772
g2
aa(lp5773
a(lp5774
a(lp5775
a(lp5776
a(lp5777
a(lp5778
g2
aa(lp5779
a(lp5780
a(lp5781
a(lp5782
a(lp5783
a(lp5784
a(lp5785
a(lp5786
a(lp5787
a(lp5788
a(lp5789
a(lp5790
a(lp5791
a(lp5792
a(lp5793
a(lp5794
a(lp5795
a(lp5796
g2
aa(lp5797
a(lp5798
a(lp5799
a(lp5800
a(lp5801
a(lp5802
a(lp5803
a(lp5804
a(lp5805
a(lp5806
a(lp5807
a(lp5808
a(lp5809
a(lp5810
a(lp5811
a(lp5812
a(lp5813
a(lp5814
a(lp5815
a(lp5816
a(lp5817
g3
aa(lp5818
a(lp5819
a(lp5820
a(lp5821
g2
aa(lp5822
a(lp5823
a(lp5824
a(lp5825
a(lp5826
a(lp5827
a(lp5828
g5
aa(lp5829
g2
ag3
aa(lp5830
g10
aa(lp5831
a(lp5832
a(lp5833
a(lp5834
a(lp5835
a(lp5836
a(lp5837
a(lp5838
a(lp5839
a(lp5840
a(lp5841
a(lp5842
a(lp5843
a(lp5844
a(lp5845
a(lp5846
a(lp5847
a(lp5848
a(lp5849
a(lp5850
a(lp5851
a(lp5852
a(lp5853
a(lp5854
a(lp5855
a(lp5856
a(lp5857
a(lp5858
a(lp5859
g2
aa(lp5860
a(lp5861
a(lp5862
a(lp5863
a(lp5864
a(lp5865
a(lp5866
a(lp5867
g2
aa(lp5868
a(lp5869
a(lp5870
g2
ag247
aa(lp5871
a(lp5872
a(lp5873
a(lp5874
a(lp5875
a(lp5876
g76
ag2
aa(lp5877
a(lp5878
a(lp5879
g3
aa(lp5880
a(lp5881
a(lp5882
a(lp5883
a(lp5884
a(lp5885
a(lp5886
a(lp5887
a(lp5888
a(lp5889
a(lp5890
a(lp5891
g2
ag247
aa(lp5892
a(lp5893
a(lp5894
a(lp5895
a(lp5896
a(lp5897
a(lp5898
a(lp5899
a(lp5900
a(lp5901
a(lp5902
g3
aa(lp5903
a(lp5904
a(lp5905
a(lp5906
a(lp5907
a(lp5908
a(lp5909
a(lp5910
a(lp5911
a(lp5912
a(lp5913
g2
ag28
aa(lp5914
a(lp5915
a(lp5916
a(lp5917
g2
ag3
aa(lp5918
g2
aa(lp5919
a(lp5920
a(lp5921
a(lp5922
a(lp5923
g2
aa(lp5924
a(lp5925
a(lp5926
a(lp5927
a(lp5928
a(lp5929
a(lp5930
a(lp5931
a(lp5932
g2
aa(lp5933
g2
aa(lp5934
a(lp5935
a(lp5936
g2
aa(lp5937
g2
aa(lp5938
a(lp5939
a(lp5940
a(lp5941
a(lp5942
a(lp5943
g2
aa(lp5944
a(lp5945
a(lp5946
a(lp5947
a(lp5948
g2
aa(lp5949
g2
aa(lp5950
a(lp5951
a(lp5952
a(lp5953
a(lp5954
a(lp5955
a(lp5956
a(lp5957
a(lp5958
a(lp5959
a(lp5960
a(lp5961
a(lp5962
g2
aa(lp5963
a(lp5964
a(lp5965
a(lp5966
a(lp5967
a(lp5968
a(lp5969
a(lp5970
a.