(lp0
S'special_climate_change_fund'
p1
aS'non-annex_i_national_communications'
p2
aS'operating_entity'
p3
aS'annex_i_national_communications'
p4
aS'napas'
p5
aS'adaptation_fund'
p6
aS'global_environment_facility'
p7
aS'financial_mechanism'
p8
aS'fund'
p9
aS'least_developed_countries'
p10
aS'special_climate_change_fund'
p11
aS'financial_resources'
p12
aS'adaptation_needs'
p13
aS'policies_and_measures'
p14
aS'importance_of_adaptation'
p15
aS'national_adaptation_programmes_of_action'
p16
aS'education'
p17
aS'lack_of_progress'
p18
aS'prompt_start'
p19
aS'additionality'
p20
aS'baseline'
p21
aS'nuclear'
p22
aS'certified_emission_reductions'
p23
aS'domestic_action'
p24
aS'supplementarity'
p25
aS'leakage'
p26
aS'clean_development_mechanism'
p27
aS'impact_assessments'
p28
aS'cers'
p29
aS'expert_review'
p30
aS'facilitative_branch'
p31
aS'enforcement'
p32
aS'compliance_system'
p33
aS'climate_justice'
p34
aS'poverty_eradication'
p35
aS'food'
p36
aS'gender'
p37
aS'loss_and_damage'
p38
aS'agriculture'
p39
aS'health'
p40
aS'water'
p41
aS'poverty'
p42
aS'human_rights'
p43
aS'food_security'
p44
aS'sustainable_development'
p45
aS'indigenous_peoples'
p46
aS'women'
p47
aS'climate_change_impacts'
p48
aS'development'
p49
aS'ozone'
p50
aS'reducing_emissions'
p51
aS'emissions_inventories'
p52
aS'greenhouse_gas_emissions'
p53
aS'hydrofluorocarbons'
p54
aS'global_warming_potentials'
p55
aS'perfluorocarbons'
p56
aS'dangerous_anthropogenic_interference'
p57
aS'gases'
p58
aS'co2'
p59
aS'montreal_protocol'
p60
aS'emissions'
p61
aS'differentiated_responsibilities'
p62
aS'hfcs'
p63
aS'future_commitments'
p64
aS'economies_in_transition'
p65
aS'reference_levels'
p66
aS'berlin_mandate'
p67
aS'emissions_trading'
p68
aS'qelros'
p69
aS'flexibility_mechanisms'
p70
aS'flexibility'
p71
aS'base_year'
p72
aS'assigned_amount_units'
p73
aS'kyoto_protocol'
p74
aS'second_commitment_period'
p75
aS'emissions_trading_system'
p76
aS'binding_commitments'
p77
aS'accounting_rules'
p78
aS'forest_conservation'
p79
aS'reforestation'
p80
aS'sink'
p81
aS'land-use_change'
p82
aS'biodiversity'
p83
aS'forest_management'
p84
aS'afforestation'
p85
aS'desertification'
p86
aS'harvested_wood_products'
p87
aS'option_c'
p88
aS'additional_activities'
p89
aS'land_use'
p90
aS'forestry'
p91
aS'forest'
p92
aS'lulucf'
p93
aS'carbon_stocks'
p94
aS'inaction'
p95
aS'stabilization'
p96
aS'global_climate_observing_system'
p97
aS'uncertainty'
p98
aS'intergovernmental_panel_on_climate_change'
p99
aS'observing_systems'
p100
aS'models'
p101
aS'greenhouse_gas_concentrations'
p102
aS'political_will'
p103
aS'bali_action_plan'
p104
aS'building_blocks'
p105
aS'non-market_approaches'
p106
aS'sectoral_approaches'
p107
aS'market_mechanisms'
p108
aS'climate_finance'
p109
aS'green_climate_fund'
p110
aS'historical_responsibility'
p111
aS'methodological_guidance'
p112
aS'redd'
p113
aS'cooperative_action'
p114
aS'market_approaches'
p115
aS'redd+'
p116
aS'long-term_cooperation'
p117
aS'shared_vision'
p118
aS'nationally_appropriate_mitigation_actions'
p119
aS'mrv'
p120
aS'ica'
p121
aS'mitigation_actions'
p122
aS'post-2012'
p123
aS'performance_indicators'
p124
aS'carbon_sequestration'
p125
aS'renewable_energy'
p126
aS'energy'
p127
aS'investment'
p128
aS'innovation'
p129
aS'business'
p130
aS'intellectual_property_rights'
p131
aS'industry'
p132
aS'enabling_environment'
p133
aS'international_cooperation'
p134
aS'energy_efficiency'
p135
aS'technology_transfer_mechanism'
p136
aS'technology'
p137
aS'research_and_development'
p138
aS'technology_development'
p139
aS'private_sector'
p140
aS'technology_transfer'
p141
aS'fuels'
p142
aS'maritime'
p143
aS'international_aviation'
p144
aS'transport'
p145
aS'maritime_transport'
p146
aS'fossil_fuels'
p147
aS'transportation'
p148
aS'bunker_fuels'
p149
aS'international_transaction_log'
p150
aS'buenos_aires_programme_of_work'
p151
aS'adaptation_technologies'
p152
aS'vulnerable'
p153
aS'small_island'
p154
aS'privileges_and_immunities'
p155
aS'vulnerable_countries'
p156
aS'most_vulnerable'
p157
aS'nairobi_work_programme'
p158
aS'article_9'
p159
aS'vulnerability_and_adaptation'
p160
aS'adaptation_and_response_measures'
p161
aS'mitigation_and_adaptation'
p162
a.