(lp0
(lp1
a(lp2
S'intergovernmental_panel_on_climate_change'
p3
aa(lp4
S'binding_commitments'
p5
aS'technology_transfer'
p6
aa(lp7
S'development'
p8
aa(lp9
S'financial_mechanism'
p10
aa(lp11
a(lp12
g10
aS'funding'
p13
aa(lp14
a(lp15
S'gef'
p16
ag10
ag13
aS'technology'
p17
aa(lp18
a(lp19
S'small_island'
p20
aa(lp21
a(lp22
S'greenhouse_gas_emissions'
p23
aa(lp24
g17
aa(lp25
a(lp26
g10
aa(lp27
a(lp28
a(lp29
g16
aa(lp30
a(lp31
S'co2'
p32
aS'greenhouse_gas_concentrations'
p33
aa(lp34
a(lp35
a(lp36
S'emission'
p37
ag3
aa(lp38
g16
ag10
aa(lp39
a(lp40
S'uncertainties'
p41
aa(lp42
g13
ag41
aS'models'
p43
aS'fossil_fuels'
p44
aa(lp45
S'flexibility'
p46
aa(lp47
a(lp48
S'policies_and_measures'
p49
ag32
aS'land_use'
p50
aS'forestry'
p51
aS'stabilization'
p52
aS'energy'
p53
aS'fuel'
p54
aS'transport'
p55
aS'transportation'
p56
aa(lp57
g13
aa(lp58
g16
ag13
ag8
aa(lp59
g16
ag13
aa(lp60
g16
aa(lp61
g10
aa(lp62
a(lp63
g10
aa(lp64
g8
aa(lp65
a(lp66
g8
aS'emissions_inventories'
p67
ag32
aa(lp68
a(lp69
a(lp70
g46
aa(lp71
a(lp72
g10
aa(lp73
g16
aa(lp74
g10
ag13
aa(lp75
a(lp76
S'operating_entity'
p77
ag10
ag13
aa(lp78
a(lp79
a(lp80
g77
ag13
aa(lp81
g10
aa(lp82
g77
ag16
ag10
aa(lp83
g16
ag10
ag13
aS'private_sector'
p84
aa(lp85
g10
aa(lp86
a(lp87
a(lp88
a(lp89
g32
ag6
aS'article_9'
p90
aa(lp91
g49
ag32
aS'afforestation'
p92
aS'renewable_energy'
p93
aS'energy_efficiency'
p94
aa(lp95
a(lp96
g56
aa(lp97
g49
ag5
aS'business'
p98
aa(lp99
S'economies_in_transition'
p100
aa(lp101
S'differentiated_responsibilities'
p102
aa(lp103
g10
aa(lp104
g16
ag10
aa(lp105
g10
aa(lp106
g10
aa(lp107
S'research_and_development'
p108
ag6
aa(lp109
g77
aa(lp110
g10
ag23
aa(lp111
a(lp112
a(lp113
g10
aa(lp114
a(lp115
a(lp116
g84
aa(lp117
S'baselines'
p118
aa(lp119
g17
aa(lp120
g10
ag13
aS'sustainable_development'
p121
ag84
aa(lp122
g10
aa(lp123
g77
aa(lp124
g77
ag23
aS'montreal_protocol'
p125
aa(lp126
g6
aa(lp127
a(lp128
g16
ag10
aa(lp129
g16
ag13
aa(lp130
g13
aa(lp131
a(lp132
g10
aa(lp133
a(lp134
g46
aa(lp135
g10
aa(lp136
S'biodiversity'
p137
aa(lp138
a(lp139
a(lp140
a(lp141
g13
aa(lp142
a(lp143
a(lp144
a(lp145
a(lp146
g84
aa(lp147
a(lp148
g46
aa(lp149
a(lp150
a(lp151
g90
aa(lp152
S'bunker_fuels'
p153
aa(lp154
a(lp155
a(lp156
a(lp157
g10
aa(lp158
a(lp159
a(lp160
g13
aa(lp161
a(lp162
a(lp163
a(lp164
a(lp165
a(lp166
g125
ag53
aa(lp167
a(lp168
a(lp169
a(lp170
a(lp171
a(lp172
a(lp173
a(lp174
g137
aa(lp175
a(lp176
g10
aa(lp177
a(lp178
a(lp179
a(lp180
g41
aa(lp181
g13
ag98
aa(lp182
a(lp183
g49
aa(lp184
g32
ag46
aa(lp185
g16
ag10
aa(lp186
a(lp187
S'agriculture'
p188
aS'industry'
p189
ag17
ag6
ag55
aa(lp190
g13
aa(lp191
a(lp192
a(lp193
a(lp194
g137
aa(lp195
a(lp196
a(lp197
a(lp198
a(lp199
g6
aa(lp200
a(lp201
a(lp202
a(lp203
a(lp204
g32
ag52
aa(lp205
a(lp206
a(lp207
a(lp208
a(lp209
g98
aa(lp210
a(lp211
a(lp212
a(lp213
g23
aa(lp214
g37
aa(lp215
g121
ag17
aa(lp216
g10
aa(lp217
a(lp218
g100
ag6
aa(lp219
g16
aa(lp220
a(lp221
g20
aa(lp222
a(lp223
a(lp224
a(lp225
a(lp226
a(lp227
a(lp228
g20
aa(lp229
g98
aa(lp230
a(lp231
a(lp232
a(lp233
g67
aa(lp234
a(lp235
a(lp236
a(lp237
g32
aa(lp238
g77
ag10
aa(lp239
g10
ag6
aa(lp240
g77
ag10
ag98
aa(lp241
a(lp242
g98
aa(lp243
g3
aa(lp244
g5
ag6
aa(lp245
g8
aa(lp246
g10
aa(lp247
a(lp248
g10
ag13
aa(lp249
a(lp250
g16
ag10
ag13
ag17
aa(lp251
a(lp252
g20
aa(lp253
g10
aa(lp254
a(lp255
a(lp256
g23
aa(lp257
g16
ag10
aa(lp258
g10
aa(lp259
S'nuclear'
p260
ag121
aa(lp261
a(lp262
a(lp263
g260
aa(lp264
a(lp265
g121
ag53
aa(lp266
g10
aa(lp267
g8
aa(lp268
g189
ag84
aa(lp269
g102
ag93
aa(lp270
a(lp271
S'international_cooperation'
p272
aa(lp273
a(lp274
a(lp275
a(lp276
a(lp277
a(lp278
a(lp279
g10
aa(lp280
g13
aa(lp281
a(lp282
a(lp283
a(lp284
a(lp285
a(lp286
a(lp287
a(lp288
a(lp289
a(lp290
a(lp291
a(lp292
a(lp293
g32
ag52
aa(lp294
a(lp295
g46
ag53
aa(lp296
a(lp297
g8
aa(lp298
g53
ag94
ag54
ag55
ag56
aa(lp299
g100
aa(lp300
g121
ag102
ag53
aa(lp301
g8
ag52
aa(lp302
a(lp303
g102
ag98
ag44
aa(lp304
a(lp305
g32
aa(lp306
g10
ag17
aa(lp307
g17
aa(lp308
a(lp309
a(lp310
S'desertification'
p311
ag53
ag98
aa(lp312
a(lp313
g32
ag54
aa(lp314
g13
ag260
ag100
aa(lp315
S'education'
p316
ag94
aa(lp317
g311
aa(lp318
g32
ag53
ag94
ag17
aa(lp319
S'vulnerable'
p320
aa(lp321
g98
aa(lp322
g8
ag102
ag20
aa(lp323
a(lp324
S'inaction'
p325
aa(lp326
a(lp327
a(lp328
g37
aa(lp329
a(lp330
g93
ag84
aa(lp331
S'financial_resources'
p332
ag17
ag84
aa(lp333
g8
aa(lp334
g121
ag8
ag6
aa(lp335
a(lp336
g332
ag17
ag6
aa(lp337
g332
ag121
aa(lp338
g17
ag84
aa(lp339
g16
ag8
aa(lp340
g10
aa(lp341
a(lp342
a(lp343
a(lp344
g6
aa(lp345
g8
ag84
ag6
aa(lp346
g16
ag8
aa(lp347
g16
aa(lp348
a(lp349
a(lp350
a(lp351
a(lp352
a(lp353
a(lp354
a(lp355
a(lp356
a(lp357
g121
aa(lp358
g6
aa(lp359
a(lp360
g121
ag8
ag50
ag6
aa(lp361
g16
ag10
ag332
ag8
aa(lp362
g8
aa(lp363
g6
aa(lp364
a(lp365
a(lp366
g77
ag10
aa(lp367
g77
ag100
aa(lp368
g13
ag325
ag93
aS'investment'
p369
aa(lp370
g8
ag6
ag320
aa(lp371
g37
aa(lp372
S'lack_of_progress'
p373
aa(lp374
a(lp375
g77
ag10
aa(lp376
g6
aa(lp377
a(lp378
g332
ag17
aa(lp379
g6
aa(lp380
g53
aa(lp381
g17
aa(lp382
a(lp383
g17
ag6
aa(lp384
g17
ag6
aa(lp385
a(lp386
g17
aa(lp387
g13
aa(lp388
a(lp389
a(lp390
a(lp391
a(lp392
a(lp393
a(lp394
a(lp395
g6
aa(lp396
a(lp397
g13
ag6
aa(lp398
a(lp399
a(lp400
a(lp401
a(lp402
a(lp403
a(lp404
g121
ag32
ag17
aa(lp405
a(lp406
g10
aa(lp407
a(lp408
S'political_will'
p409
aa(lp410
g8
ag102
aa(lp411
g32
ag17
aa(lp412
g51
aa(lp413
g100
aa(lp414
g20
aa(lp415
g53
aa(lp416
g53
aa(lp417
g32
ag37
aa(lp418
a(lp419
g37
aa(lp420
a(lp421
a(lp422
a(lp423
a(lp424
g320
ag20
aa(lp425
S'reducing_emissions'
p426
aa(lp427
a(lp428
g8
ag311
aa(lp429
g10
ag125
aa(lp430
a(lp431
g13
ag6
aa(lp432
g8
aa(lp433
g102
ag17
aa(lp434
g32
aa(lp435
g32
ag43
ag6
ag55
aa(lp436
g8
ag272
ag6
aa(lp437
a(lp438
a(lp439
a(lp440
a(lp441
a(lp442
g53
ag55
aa(lp443
g260
aS'health'
p444
ag8
aa(lp445
g188
ag121
ag426
aa(lp446
g444
ag8
aa(lp447
g49
ag121
ag8
ag53
ag272
aa(lp448
g332
ag121
ag6
aa(lp449
g8
ag32
ag94
aa(lp450
g332
ag311
ag17
aa(lp451
g332
ag17
aa(lp452
g93
ag53
ag17
aa(lp453
S'poverty'
p454
ag121
ag8
aa(lp455
S'women'
p456
ag53
ag55
aa(lp457
a(lp458
g52
aa(lp459
g444
ag311
aa(lp460
g54
ag320
aa(lp461
g6
aa(lp462
a(lp463
g6
aa(lp464
g8
ag17
aa(lp465
g8
ag32
aS'sink'
p466
ag311
ag369
ag94
ag55
aa(lp467
a(lp468
a(lp469
g8
ag6
aa(lp470
g17
aa(lp471
a(lp472
a(lp473
a(lp474
g8
aa(lp475
a(lp476
g23
aS'berlin_mandate'
p477
aa(lp478
g49
ag37
aa(lp479
g49
ag32
aa(lp480
g6
aa(lp481
a(lp482
g10
aa(lp483
g10
ag17
aa(lp484
a(lp485
S'carbon_sequestration'
p486
ag189
aa(lp487
g369
aa(lp488
g16
aa(lp489
a(lp490
g260
ag477
ag3
aa(lp491
g16
ag332
aa(lp492
a(lp493
g53
aa(lp494
g316
aa(lp495
g32
ag100
ag52
aa(lp496
g37
ag84
ag6
aa(lp497
g49
ag37
aa(lp498
g16
ag10
aa(lp499
g13
ag477
ag53
ag108
aa(lp500
g93
ag53
ag94
ag108
aa(lp501
g17
aa(lp502
g477
aa(lp503
g20
aa(lp504
a(lp505
a(lp506
g16
aa(lp507
a(lp508
S'human_rights'
p509
ag125
aa(lp510
g260
ag125
aa(lp511
a(lp512
a(lp513
a(lp514
a(lp515
a(lp516
a(lp517
a(lp518
S'most_vulnerable'
p519
aa(lp520
a(lp521
a(lp522
a(lp523
g37
aa(lp524
g102
aa(lp525
S'performance_indicators'
p526
ag6
aa(lp527
a(lp528
a(lp529
a(lp530
a(lp531
a(lp532
a(lp533
g13
aa(lp534
g13
aa(lp535
a(lp536
a(lp537
g332
ag37
ag46
ag6
aa(lp538
a(lp539
g37
ag6
aa(lp540
g49
ag8
ag54
ag153
aa(lp541
a(lp542
g8
ag98
aa(lp543
g8
ag98
aa(lp544
a(lp545
g108
aa(lp546
a(lp547
g477
aa(lp548
g13
aa(lp549
g10
ag13
aa(lp550
g16
ag13
ag20
aa(lp551
g37
aa(lp552
g6
aa(lp553
g6
aa(lp554
a(lp555
S'adaptation_technologies'
p556
aa(lp557
g37
aa(lp558
a(lp559
g98
aa(lp560
g17
ag6
aa(lp561
g53
aS'enabling_environment'
p562
ag17
ag84
ag6
aa(lp563
g17
ag84
ag6
aa(lp564
a(lp565
g37
aa(lp566
a(lp567
a(lp568
a(lp569
a(lp570
a(lp571
g477
aa(lp572
a(lp573
a(lp574
g17
ag84
ag6
aa(lp575
S'ldcs'
p576
ag17
ag84
ag6
aa(lp577
S'annex_i_national_communications'
p578
aa(lp579
g49
aa(lp580
g49
ag8
aa(lp581
g49
ag100
ag325
ag93
ag54
aa(lp582
S'qelros'
p583
ag325
aa(lp584
g583
aa(lp585
g32
ag583
aa(lp586
S'emissions_trading'
p587
ag583
aa(lp588
g17
aa(lp589
g587
ag53
ag98
ag189
ag94
aa(lp590
a(lp591
a(lp592
g8
ag17
aa(lp593
g98
aa(lp594
g6
aa(lp595
g477
aa(lp596
g477
aa(lp597
g325
aS'innovation'
p598
ag54
aa(lp599
g477
ag325
ag43
ag189
aa(lp600
g426
ag598
aa(lp601
g98
aa(lp602
g37
ag100
aa(lp603
a(lp604
g8
ag100
ag17
aa(lp605
a(lp606
a(lp607
a(lp608
g188
ag444
aa(lp609
a(lp610
g49
ag583
aa(lp611
g100
aa(lp612
g49
ag583
aa(lp613
g49
aa(lp614
a(lp615
g49
ag46
ag5
aa(lp616
g49
ag121
ag583
aa(lp617
g583
aa(lp618
g13
aa(lp619
g477
aa(lp620
a(lp621
g49
ag37
ag583
ag46
ag41
aa(lp622
a(lp623
g49
ag583
aa(lp624
g49
aa(lp625
g583
aa(lp626
g37
ag46
aa(lp627
g8
ag17
aa(lp628
a(lp629
a(lp630
a(lp631
g13
aa(lp632
g17
ag6
aa(lp633
g16
ag121
ag98
ag84
aa(lp634
g16
aa(lp635
g578
aa(lp636
g320
aa(lp637
g13
aa(lp638
a(lp639
S'future_commitments'
p640
ag477
aa(lp641
g8
aa(lp642
g49
ag583
aa(lp643
g32
ag477
aa(lp644
a(lp645
g477
aa(lp646
g8
ag37
ag100
aa(lp647
g32
aa(lp648
g49
aa(lp649
g49
ag260
ag100
ag46
ag5
ag272
aa(lp650
g8
aa(lp651
g8
ag102
ag477
ag466
ag50
aa(lp652
g8
ag325
ag41
ag189
ag94
aa(lp653
g49
ag8
ag37
ag102
aa(lp654
g32
ag53
ag55
aa(lp655
g17
aa(lp656
g16
ag13
ag17
aa(lp657
g8
ag37
ag53
ag17
ag54
ag44
aa(lp658
g8
ag409
aa(lp659
g53
ag369
aa(lp660
g477
aa(lp661
g16
aa(lp662
a(lp663
g37
aa(lp664
g189
aa(lp665
g8
ag519
aa(lp666
a(lp667
S'water'
p668
ag53
ag17
aa(lp669
a(lp670
a(lp671
g49
ag8
aa(lp672
g477
aa(lp673
S'base_year'
p674
aa(lp675
a(lp676
g32
aa(lp677
g49
ag37
ag46
ag17
aa(lp678
g94
ag6
aa(lp679
g49
aa(lp680
g17
aa(lp681
a(lp682
g94
aa(lp683
g272
aa(lp684
a(lp685
a(lp686
g587
ag46
ag5
aa(lp687
g477
aa(lp688
a(lp689
a(lp690
g37
aa(lp691
g10
ag8
aS'kyoto_protocol'
p692
aS'land-use_change'
p693
ag50
ag51
aS'lulucf'
p694
aa(lp695
S'enforcement'
p696
aS'compliance_system'
p697
ag8
ag125
ag692
aa(lp698
a(lp699
g49
ag260
ag41
ag53
ag369
ag44
aa(lp700
a(lp701
a(lp702
g46
aa(lp703
g121
ag8
ag6
aa(lp704
g8
ag37
ag694
ag53
aa(lp705
S'cdm'
p706
ag692
ag93
ag20
aS'vulnerability_and_adaptation'
p707
aa(lp708
S'adaptation_needs'
p709
aS'domestic_action'
p710
ag20
aa(lp711
g444
ag121
ag93
ag53
ag6
aa(lp712
g10
ag693
ag50
ag51
ag694
aa(lp713
g409
aa(lp714
g8
aS'flexibility_mechanisms'
p715
ag51
aa(lp716
g121
ag32
ag53
aa(lp717
S'vulnerable_countries'
p718
aa(lp719
g49
aa(lp720
a(lp721
a(lp722
a(lp723
g13
ag332
ag37
aa(lp724
a(lp725
g20
aa(lp726
S'expert_review'
p727
aa(lp728
g332
aa(lp729
a(lp730
g100
ag694
ag3
ag6
aa(lp731
g49
aa(lp732
g692
ag466
ag694
aa(lp733
S'additional_activities'
p734
aa(lp735
g41
aa(lp736
g696
ag587
aa(lp737
g697
ag8
aa(lp738
a(lp739
a(lp740
a(lp741
g49
ag320
aa(lp742
g53
aa(lp743
a(lp744
a(lp745
g727
ag697
ag692
aa(lp746
a(lp747
a(lp748
g6
aa(lp749
g706
aa(lp750
g486
aa(lp751
a(lp752
a(lp753
g16
aa(lp754
a(lp755
a(lp756
g706
aa(lp757
g697
aa(lp758
g49
aa(lp759
a(lp760
g693
ag50
ag51
ag694
aa(lp761
g8
ag693
ag50
ag51
ag694
aa(lp762
a(lp763
a(lp764
a(lp765
a(lp766
a(lp767
g6
aa(lp768
g706
ag17
ag84
ag6
ag556
aa(lp769
g49
ag272
aa(lp770
g54
aS'maritime'
p771
ag56
aa(lp772
S'second_commitment_period'
p773
ag54
aa(lp774
a(lp775
a(lp776
g102
aa(lp777
S'climate_change_impacts'
p778
aS'harvested_wood_products'
p779
aa(lp780
g13
ag706
aa(lp781
S'hydrofluorocarbons'
p782
aS'perfluorocarbons'
p783
ag556
aa(lp784
a(lp785
a(lp786
a(lp787
g332
aa(lp788
g16
ag13
aa(lp789
a(lp790
a(lp791
g8
ag692
ag693
ag50
ag51
ag694
ag6
aa(lp792
S'ozone'
p793
ag782
ag783
aS'hfcs'
p794
aa(lp795
g794
aa(lp796
g706
ag8
ag556
aa(lp797
g13
aS'global_climate_observing_system'
p798
aS'observing_systems'
p799
aa(lp800
a(lp801
S'facilitative_branch'
p802
ag696
ag697
aa(lp803
a(lp804
g727
aa(lp805
a(lp806
g727
aa(lp807
a(lp808
a(lp809
g13
ag332
ag6
aa(lp810
a(lp811
a(lp812
g706
aa(lp813
a(lp814
a(lp815
g77
ag10
aa(lp816
g693
ag50
ag51
ag694
aa(lp817
a(lp818
a(lp819
a(lp820
g697
aa(lp821
a(lp822
a(lp823
a(lp824
g798
aa(lp825
g100
aa(lp826
g694
ag41
aa(lp827
a(lp828
a(lp829
a(lp830
a(lp831
g188
ag693
ag694
aa(lp832
g692
ag693
ag50
ag51
ag694
aa(lp833
a(lp834
a(lp835
a(lp836
a(lp837
g13
ag17
aa(lp838
a(lp839
a(lp840
g734
aa(lp841
g706
ag84
aa(lp842
g121
aa(lp843
g118
ag706
aS'forest'
p844
aa(lp845
g121
aa(lp846
g13
ag369
aa(lp847
g13
aS'additionality'
p848
ag706
ag46
ag84
aa(lp849
g13
ag848
ag84
aa(lp850
a(lp851
g13
ag121
aa(lp852
g10
ag692
ag693
ag50
ag51
ag694
ag6
aa(lp853
g6
aa(lp854
g49
aa(lp855
g13
aa(lp856
g8
ag17
aa(lp857
g8
ag782
ag783
ag556
aa(lp858
a(lp859
g54
ag56
aa(lp860
g844
aa(lp861
a(lp862
a(lp863
a(lp864
g16
ag10
aa(lp865
a(lp866
a(lp867
S'non-annex_i_national_communications'
p868
aa(lp869
a(lp870
g727
ag697
aa(lp871
g697
aa(lp872
g706
aa(lp873
a(lp874
g734
aa(lp875
g848
aa(lp876
g373
ag153
aa(lp877
a(lp878
g373
ag692
aa(lp879
g260
ag706
ag121
ag8
ag53
ag369
ag98
aa(lp880
g8
ag53
ag98
ag17
ag84
aa(lp881
g311
aa(lp882
g710
ag793
aa(lp883
a(lp884
g710
aa(lp885
a(lp886
a(lp887
g710
ag8
aa(lp888
g260
ag706
ag454
ag121
aS'reforestation'
p889
ag92
ag53
aa(lp890
g697
aa(lp891
g8
aa(lp892
g332
ag17
aa(lp893
g693
aa(lp894
g332
ag6
aa(lp895
g8
aa(lp896
g49
aa(lp897
g16
ag576
aa(lp898
g10
ag100
aa(lp899
a(lp900
g848
ag37
ag587
aS'assigned_amount_units'
p901
aa(lp902
g409
aa(lp903
g692
ag693
ag50
ag51
ag694
ag54
ag56
aa(lp904
g332
ag32
ag93
ag6
aa(lp905
a(lp906
g710
ag706
ag426
ag84
aa(lp907
g100
aa(lp908
a(lp909
g692
aa(lp910
g409
aa(lp911
a(lp912
a(lp913
a(lp914
a(lp915
g710
aS'supplementarity'
p916
aa(lp917
g697
aa(lp918
g100
aa(lp919
a(lp920
a(lp921
a(lp922
g332
aa(lp923
a(lp924
a(lp925
g10
ag694
aa(lp926
g102
ag54
ag56
aa(lp927
g16
ag10
aa(lp928
a(lp929
g692
aa(lp930
a(lp931
a(lp932
a(lp933
a(lp934
a(lp935
a(lp936
a(lp937
g8
ag6
aa(lp938
a(lp939
a(lp940
a(lp941
g16
aa(lp942
g100
aa(lp943
a(lp944
g694
aa(lp945
a(lp946
a(lp947
a(lp948
g793
ag782
ag783
ag32
aa(lp949
g54
ag55
aa(lp950
a(lp951
g426
ag692
aa(lp952
g188
ag444
ag41
ag56
aa(lp953
g8
ag23
aa(lp954
g706
ag477
ag587
ag692
aa(lp955
a(lp956
a(lp957
g8
ag17
ag320
aa(lp958
g8
ag17
aa(lp959
g49
ag697
ag23
ag6
aa(lp960
a(lp961
a(lp962
g49
ag50
ag51
ag694
ag6
aa(lp963
a(lp964
a(lp965
g694
aa(lp966
a(lp967
g706
ag587
aa(lp968
a(lp969
g13
ag576
aS'national_adaptation_programmes_of_action'
p970
ag6
aa(lp971
g692
aa(lp972
a(lp973
g118
ag706
aS'accounting_rules'
p974
ag889
aa(lp975
g49
aa(lp976
g710
ag23
ag100
ag587
aa(lp977
g587
aa(lp978
g118
ag466
ag844
ag694
aa(lp979
g889
ag734
aa(lp980
g696
ag697
ag102
ag692
ag20
aa(lp981
g373
ag17
aa(lp982
g576
ag20
ag718
aa(lp983
a(lp984
g8
ag3
ag43
aa(lp985
a(lp986
a(lp987
a(lp988
g10
ag49
ag693
ag50
ag51
ag694
ag6
aa(lp989
a(lp990
g8
aa(lp991
g8
ag23
ag692
ag98
aa(lp992
g188
ag444
ag3
ag108
ag84
aa(lp993
a(lp994
a(lp995
a(lp996
g692
aa(lp997
a(lp998
g16
ag13
ag426
ag6
aa(lp999
a(lp1000
g696
ag587
aa(lp1001
g576
ag587
aa(lp1002
a(lp1003
g576
aa(lp1004
a(lp1005
a(lp1006
g100
aa(lp1007
a(lp1008
g694
aa(lp1009
g706
ag694
aa(lp1010
a(lp1011
a(lp1012
g49
aa(lp1013
S'international_aviation'
p1014
ag153
aa(lp1015
g798
aa(lp1016
g137
aa(lp1017
a(lp1018
g13
aa(lp1019
a(lp1020
g10
ag13
aa(lp1021
a(lp1022
g706
ag694
ag41
aa(lp1023
S'prompt_start'
p1024
ag118
aa(lp1025
g576
ag848
ag118
ag901
ag20
aa(lp1026
g587
aa(lp1027
g8
ag17
aa(lp1028
S'technology_transfer_mechanism'
p1029
ag17
aa(lp1030
a(lp1031
a(lp1032
g6
aa(lp1033
g49
ag8
ag100
ag693
ag50
ag51
ag694
aa(lp1034
g696
aa(lp1035
g706
ag696
ag889
ag92
ag734
aa(lp1036
g696
ag100
ag46
aa(lp1037
a(lp1038
a(lp1039
a(lp1040
a(lp1041
a(lp1042
S'forest_management'
p1043
ag734
ag694
aa(lp1044
g974
ag734
ag694
aa(lp1045
g694
aa(lp1046
g576
aa(lp1047
a(lp1048
a(lp1049
g49
aa(lp1050
a(lp1051
a(lp1052
g8
ag6
aa(lp1053
g8
ag100
ag17
ag6
aa(lp1054
g17
aa(lp1055
g13
ag17
aa(lp1056
a(lp1057
g84
ag6
aa(lp1058
g706
ag6
aa(lp1059
g706
aa(lp1060
g16
ag100
aa(lp1061
a(lp1062
g706
ag694
aa(lp1063
a(lp1064
g6
aa(lp1065
g10
ag49
ag8
ag693
ag50
ag51
ag694
aa(lp1066
g706
ag889
ag92
ag694
aa(lp1067
g734
ag844
aa(lp1068
g889
ag92
aa(lp1069
g1043
aa(lp1070
a(lp1071
g844
aa(lp1072
a(lp1073
g773
ag734
aa(lp1074
g889
ag92
aa(lp1075
g10
ag332
aa(lp1076
g37
ag694
aa(lp1077
g727
aa(lp1078
a(lp1079
g49
ag587
aa(lp1080
a(lp1081
g8
ag17
aa(lp1082
g100
ag17
ag6
aa(lp1083
g8
ag17
aa(lp1084
g332
aa(lp1085
g84
ag6
aa(lp1086
g17
aa(lp1087
g332
aa(lp1088
g49
aa(lp1089
a(lp1090
a(lp1091
a(lp1092
g706
aa(lp1093
g77
ag10
aa(lp1094
a(lp1095
a(lp1096
g802
ag696
aa(lp1097
g260
ag53
aa(lp1098
a(lp1099
g6
aa(lp1100
a(lp1101
g694
aa(lp1102
g121
ag778
aa(lp1103
g10
ag49
ag8
ag100
ag693
ag50
ag51
ag694
aa(lp1104
g706
ag696
ag587
aa(lp1105
a(lp1106
a(lp1107
a(lp1108
g10
ag100
aa(lp1109
g10
aa(lp1110
g706
aS'cers'
p1111
aa(lp1112
g706
ag587
aa(lp1113
g8
aa(lp1114
g6
aa(lp1115
g100
ag562
ag17
aa(lp1116
a(lp1117
g6
aa(lp1118
g49
aa(lp1119
a(lp1120
a(lp1121
a(lp1122
S'adaptation_fund'
p1123
ag576
aa(lp1124
a(lp1125
g727
aa(lp1126
g694
aa(lp1127
g694
aa(lp1128
g1111
ag694
aa(lp1129
S'leakage'
p1130
ag466
ag51
ag694
ag486
aa(lp1131
g706
aS'forest_conservation'
p1132
aa(lp1133
g1130
ag706
ag37
ag694
ag17
aa(lp1134
a(lp1135
g848
ag1130
ag51
ag694
aa(lp1136
g1130
ag694
aa(lp1137
g706
aS'indigenous_peoples'
p1138
ag694
aa(lp1139
g77
ag10
aa(lp1140
g13
ag916
ag734
aa(lp1141
g49
aa(lp1142
g10
aa(lp1143
g10
ag49
ag8
ag693
ag50
ag51
ag694
aa(lp1144
a(lp1145
a(lp1146
g49
aa(lp1147
a(lp1148
a(lp1149
a(lp1150
a(lp1151
g674
aa(lp1152
g37
aa(lp1153
a(lp1154
g466
ag694
ag41
ag486
aa(lp1155
g844
ag694
aa(lp1156
g844
aa(lp1157
a(lp1158
g8
ag6
aa(lp1159
g84
ag6
aa(lp1160
g13
aa(lp1161
g77
ag10
ag13
ag6
aa(lp1162
a(lp1163
g16
ag13
ag576
ag8
aa(lp1164
a(lp1165
g10
aa(lp1166
a(lp1167
g77
ag10
ag970
aa(lp1168
a(lp1169
a(lp1170
g77
ag10
aa(lp1171
a(lp1172
g16
ag13
aa(lp1173
g10
ag49
ag8
ag693
ag50
ag51
ag694
aa(lp1174
a(lp1175
a(lp1176
g6
aa(lp1177
a(lp1178
a(lp1179
g8
ag6
aa(lp1180
g694
aa(lp1181
g576
aa(lp1182
g49
aa(lp1183
a(lp1184
a(lp1185
g77
ag10
ag13
ag576
ag46
ag20
aa(lp1186
g10
aa(lp1187
a(lp1188
g311
aa(lp1189
a(lp1190
g100
aa(lp1191
g100
aa(lp1192
g10
ag100
aa(lp1193
a(lp1194
a(lp1195
a(lp1196
g576
ag1024
ag118
ag916
ag706
ag121
aa(lp1197
a(lp1198
g576
ag332
aa(lp1199
g1130
ag694
aa(lp1200
a(lp1201
a(lp1202
g8
ag17
ag6
aa(lp1203
g49
aa(lp1204
a(lp1205
a(lp1206
g13
ag6
aa(lp1207
g41
aa(lp1208
a(lp1209
a(lp1210
a(lp1211
g49
ag1024
ag706
ag693
ag50
ag51
ag694
aa(lp1212
g100
aa(lp1213
a(lp1214
g576
ag8
ag23
aa(lp1215
a(lp1216
g13
ag56
aa(lp1217
g6
aa(lp1218
g121
ag41
ag3
aa(lp1219
g1024
ag121
ag8
ag102
ag272
aa(lp1220
g454
ag121
ag137
ag311
ag694
ag53
aa(lp1221
g1123
ag1024
ag260
ag706
ag121
ag53
ag98
aa(lp1222
g98
aa(lp1223
g706
ag50
ag844
ag41
aa(lp1224
g23
ag6
aa(lp1225
g16
aa(lp1226
g16
ag13
ag694
ag6
aa(lp1227
g13
ag706
ag6
aa(lp1228
a(lp1229
g486
aa(lp1230
g84
aa(lp1231
a(lp1232
g734
ag694
aa(lp1233
a(lp1234
a(lp1235
a(lp1236
a(lp1237
g16
ag49
ag693
ag50
ag51
ag694
ag6
aa(lp1238
a(lp1239
g456
aa(lp1240
g692
aa(lp1241
g102
aa(lp1242
g102
aa(lp1243
a(lp1244
g49
ag23
ag272
aa(lp1245
g710
aa(lp1246
g46
aa(lp1247
g260
ag706
ag121
ag93
aa(lp1248
a(lp1249
g466
ag694
aa(lp1250
g50
aa(lp1251
g576
ag6
ag519
aa(lp1252
g17
aa(lp1253
g53
aa(lp1254
g16
ag13
aa(lp1255
g1123
ag6
aa(lp1256
g121
ag23
ag100
aa(lp1257
a(lp1258
a(lp1259
g16
ag694
ag6
aa(lp1260
a(lp1261
g16
ag576
ag6
aa(lp1262
g100
ag6
aa(lp1263
g16
ag10
ag13
ag17
ag84
aa(lp1264
g16
ag13
ag576
ag100
ag6
aa(lp1265
g710
ag916
ag715
ag46
aa(lp1266
g46
aa(lp1267
g1123
ag13
ag706
ag587
aa(lp1268
a(lp1269
g260
ag706
aa(lp1270
g587
aa(lp1271
a(lp1272
g848
ag46
ag694
aa(lp1273
g49
ag694
ag56
aa(lp1274
a(lp1275
a(lp1276
a(lp1277
a(lp1278
g16
ag49
ag693
ag50
ag51
ag694
ag6
aa(lp1279
g102
aa(lp1280
a(lp1281
g23
aa(lp1282
g576
ag706
ag93
aa(lp1283
g260
ag1130
ag706
ag41
ag53
aa(lp1284
a(lp1285
g84
ag6
aa(lp1286
g576
ag332
aa(lp1287
g189
ag54
aa(lp1288
g1123
ag16
ag13
ag332
aa(lp1289
a(lp1290
a(lp1291
g16
ag13
ag6
aa(lp1292
g16
ag13
ag576
ag8
ag46
ag17
ag6
aa(lp1293
g13
ag1024
ag916
ag706
aa(lp1294
g848
ag916
ag706
ag694
aa(lp1295
g706
ag694
aa(lp1296
g10
ag332
ag49
ag697
ag100
ag46
aa(lp1297
g84
aa(lp1298
a(lp1299
g49
ag67
aa(lp1300
g916
aa(lp1301
g727
aa(lp1302
a(lp1303
a(lp1304
a(lp1305
g916
ag46
ag694
aa(lp1306
a(lp1307
a(lp1308
a(lp1309
g16
ag6
aa(lp1310
g848
ag916
ag706
ag587
aa(lp1311
g706
ag734
ag694
aa(lp1312
g10
ag49
ag727
aa(lp1313
a(lp1314
g1123
ag16
ag13
ag576
aa(lp1315
a(lp1316
a(lp1317
a(lp1318
g1123
ag16
ag13
aa(lp1319
g1123
ag16
ag576
ag20
aa(lp1320
g16
ag576
ag100
ag6
aa(lp1321
g13
ag8
ag587
aa(lp1322
g17
ag6
aa(lp1323
a(lp1324
g49
ag46
ag94
ag54
aa(lp1325
g576
ag970
ag8
ag6
aa(lp1326
g1024
ag706
aa(lp1327
g260
ag710
ag916
ag1111
ag802
ag121
ag37
ag93
ag94
aa(lp1328
a(lp1329
g706
ag37
aa(lp1330
a(lp1331
g889
ag92
ag844
ag694
aa(lp1332
g674
ag974
ag1043
ag734
ag844
aa(lp1333
g1123
ag1130
ag706
ag889
ag92
ag694
aa(lp1334
g49
aa(lp1335
g706
ag802
ag696
aa(lp1336
g696
ag697
aa(lp1337
a(lp1338
g13
ag734
aa(lp1339
a(lp1340
a(lp1341
g426
ag692
aa(lp1342
g444
ag41
aa(lp1343
g8
aa(lp1344
g706
ag477
ag587
ag692
aa(lp1345
g8
ag17
ag320
aa(lp1346
a(lp1347
g10
ag49
ag693
ag50
ag51
ag694
ag6
aa(lp1348
g916
ag694
aa(lp1349
a(lp1350
g13
ag260
ag706
ag694
aa(lp1351
a(lp1352
a(lp1353
a(lp1354
g694
ag6
aa(lp1355
a(lp1356
g916
ag889
ag92
ag694
aa(lp1357
g974
ag889
ag1043
ag92
ag694
aa(lp1358
g693
ag50
ag51
ag694
ag6
aa(lp1359
a(lp1360
g693
ag50
ag51
ag694
ag6
aa(lp1361
a(lp1362
g734
ag694
aa(lp1363
g694
aa(lp1364
g1043
aa(lp1365
a(lp1366
g10
ag6
aa(lp1367
g10
ag332
aa(lp1368
g16
ag13
ag332
aa(lp1369
g13
aa(lp1370
g16
ag13
aa(lp1371
a(lp1372
g576
aa(lp1373
g13
aa(lp1374
g373
aa(lp1375
g706
aa(lp1376
g706
aa(lp1377
g1111
ag692
aa(lp1378
g848
ag710
ag916
ag1130
aS'impact_assessments'
p1379
ag6
aa(lp1380
a(lp1381
a(lp1382
g694
aa(lp1383
g693
ag50
ag51
ag694
aa(lp1384
g802
ag696
aa(lp1385
g901
ag5
aa(lp1386
g696
aa(lp1387
g802
ag102
aa(lp1388
a(lp1389
a(lp1390
g1123
ag916
ag706
ag1111
aa(lp1391
g916
ag8
ag100
ag587
aa(lp1392
a(lp1393
g848
ag1043
ag694
aa(lp1394
g734
aa(lp1395
g1043
aS'carbon_stocks'
p1396
aa(lp1397
a(lp1398
a(lp1399
g8
aa(lp1400
g6
aa(lp1401
g6
aa(lp1402
a(lp1403
g576
ag8
aa(lp1404
a(lp1405
a(lp1406
a(lp1407
a(lp1408
g694
aa(lp1409
g693
ag50
ag51
ag694
aa(lp1410
g1024
ag706
aa(lp1411
g118
ag706
ag1379
aa(lp1412
g260
ag916
ag706
ag1111
aa(lp1413
g260
ag706
aa(lp1414
g576
ag848
aa(lp1415
g696
aa(lp1416
g696
aa(lp1417
a(lp1418
g802
ag102
aa(lp1419
a(lp1420
a(lp1421
g13
aa(lp1422
g16
aa(lp1423
g13
aa(lp1424
g1123
ag13
ag100
aa(lp1425
g13
ag100
aa(lp1426
g576
ag8
ag53
aa(lp1427
g576
aa(lp1428
g6
aa(lp1429
g694
aa(lp1430
g974
aa(lp1431
g706
ag100
ag674
ag694
aa(lp1432
a(lp1433
g260
ag706
aa(lp1434
a(lp1435
a(lp1436
g692
aa(lp1437
g16
ag13
ag100
ag6
aa(lp1438
g706
ag974
ag889
ag693
ag92
ag734
ag50
ag51
ag694
aa(lp1439
g848
ag260
ag916
ag706
ag587
aa(lp1440
g848
ag916
ag320
aa(lp1441
g802
ag696
aa(lp1442
a(lp1443
a(lp1444
a(lp1445
g369
aa(lp1446
g23
ag3
ag272
aa(lp1447
a(lp1448
g587
ag46
ag694
aa(lp1449
g697
ag188
aS'market_mechanisms'
p1450
aa(lp1451
a(lp1452
g260
ag710
aa(lp1453
a(lp1454
g694
aa(lp1455
a(lp1456
a(lp1457
a(lp1458
a(lp1459
g693
ag50
ag51
ag694
aa(lp1460
a(lp1461
a(lp1462
a(lp1463
g13
ag694
ag6
aa(lp1464
S'special_climate_change_fund'
p1465
ag13
aa(lp1466
g6
aa(lp1467
g49
aa(lp1468
g49
ag710
ag916
ag802
ag696
aa(lp1469
g260
ag1111
ag37
aa(lp1470
g20
aa(lp1471
g848
ag706
aa(lp1472
g848
ag706
ag1043
ag734
ag694
aa(lp1473
g1465
ag1123
ag13
aa(lp1474
g260
ag916
aa(lp1475
g694
aa(lp1476
g848
ag118
ag1379
ag1111
ag93
ag94
aa(lp1477
a(lp1478
a(lp1479
a(lp1480
g694
aa(lp1481
g13
aa(lp1482
g260
ag710
ag916
ag802
aa(lp1483
g694
aa(lp1484
g697
ag1450
aa(lp1485
g49
ag46
ag6
aa(lp1486
a(lp1487
g13
ag848
ag260
ag710
ag696
ag889
ag1043
ag92
ag734
ag694
aa(lp1488
a(lp1489
a(lp1490
a(lp1491
g13
aa(lp1492
a(lp1493
a(lp1494
g696
aa(lp1495
a(lp1496
a(lp1497
a(lp1498
a(lp1499
g13
aa(lp1500
g576
ag709
aa(lp1501
g13
aa(lp1502
g13
aa(lp1503
a(lp1504
a(lp1505
a(lp1506
a(lp1507
a(lp1508
a(lp1509
a(lp1510
g8
aa(lp1511
a(lp1512
g137
ag311
aa(lp1513
g454
ag137
ag694
aa(lp1514
a(lp1515
a(lp1516
g778
ag54
ag771
ag56
aa(lp1517
g844
ag17
ag6
aa(lp1518
g316
aa(lp1519
g37
ag43
aa(lp1520
g49
aa(lp1521
g694
aa(lp1522
g889
ag92
aa(lp1523
a(lp1524
g50
ag51
ag694
aa(lp1525
a(lp1526
a(lp1527
g1043
aa(lp1528
a(lp1529
g694
aa(lp1530
g1465
ag1123
aa(lp1531
g848
ag118
ag706
ag1379
ag1111
aa(lp1532
g706
aa(lp1533
a(lp1534
a(lp1535
g802
ag696
aa(lp1536
g8
ag1043
ag734
ag694
aa(lp1537
g13
ag6
aa(lp1538
g1043
aa(lp1539
a(lp1540
a(lp1541
g693
ag50
ag51
ag694
aa(lp1542
g706
ag587
ag694
aa(lp1543
g694
aa(lp1544
a(lp1545
g13
ag6
aa(lp1546
g1465
ag1123
aa(lp1547
g13
ag320
aa(lp1548
a(lp1549
g1465
ag1123
ag13
aa(lp1550
a(lp1551
g727
aa(lp1552
g802
ag696
ag100
aa(lp1553
a(lp1554
g706
ag1043
ag694
aa(lp1555
a(lp1556
g889
ag92
ag694
aa(lp1557
g311
aa(lp1558
a(lp1559
g13
ag694
ag6
aa(lp1560
a(lp1561
g426
ag692
aa(lp1562
a(lp1563
g444
ag41
aa(lp1564
g8
aa(lp1565
g706
ag477
ag587
ag692
aa(lp1566
a(lp1567
g8
ag17
ag320
aa(lp1568
a(lp1569
g10
ag49
ag693
ag50
ag51
ag694
ag6
aa(lp1570
g916
ag694
aa(lp1571
g13
ag706
ag694
aa(lp1572
a(lp1573
g694
aa(lp1574
a(lp1575
g13
aa(lp1576
g694
aa(lp1577
g3
aa(lp1578
g121
ag692
aa(lp1579
g13
ag692
ag694
ag6
aa(lp1580
a(lp1581
g3
aa(lp1582
g272
aa(lp1583
a(lp1584
g23
ag56
aa(lp1585
a(lp1586
g121
ag694
aa(lp1587
a(lp1588
g519
aa(lp1589
g576
aa(lp1590
g782
ag783
ag92
aa(lp1591
g8
ag23
aS'dangerous_anthropogenic_interference'
p1592
ag33
aa(lp1593
a(lp1594
g454
aa(lp1595
a(lp1596
a(lp1597
g8
aa(lp1598
a(lp1599
a(lp1600
a(lp1601
a(lp1602
g13
ag8
aa(lp1603
g692
aa(lp1604
g16
ag576
ag49
ag6
aa(lp1605
g13
ag8
ag17
ag6
aa(lp1606
a(lp1607
g23
ag771
ag1014
ag153
aa(lp1608
g17
aa(lp1609
g8
ag694
aa(lp1610
g694
aa(lp1611
g8
ag844
ag53
ag44
aa(lp1612
g49
aa(lp1613
g798
ag799
aa(lp1614
g444
ag137
ag311
aa(lp1615
a(lp1616
g576
ag970
aa(lp1617
a(lp1618
g16
ag13
aa(lp1619
g13
ag1024
ag706
aa(lp1620
g1024
ag697
aa(lp1621
a(lp1622
g67
aa(lp1623
g706
aa(lp1624
g802
aa(lp1625
g916
ag727
aa(lp1626
a(lp1627
g98
aa(lp1628
a(lp1629
g576
ag316
ag706
aa(lp1630
g316
aa(lp1631
a(lp1632
g53
aa(lp1633
g46
aa(lp1634
g793
aa(lp1635
g710
aa(lp1636
g889
ag92
ag734
ag694
aa(lp1637
a(lp1638
g332
aa(lp1639
g802
ag696
aa(lp1640
g727
ag802
aa(lp1641
a(lp1642
g696
aa(lp1643
g332
ag802
ag6
aa(lp1644
g696
aa(lp1645
g576
aa(lp1646
g706
aa(lp1647
a(lp1648
a(lp1649
S'napa'
p1650
ag576
aa(lp1651
g373
aa(lp1652
g121
aa(lp1653
g576
aa(lp1654
g576
aa(lp1655
g373
ag46
ag694
aa(lp1656
a(lp1657
a(lp1658
a(lp1659
a(lp1660
g67
aa(lp1661
g706
aa(lp1662
g706
aa(lp1663
g118
aa(lp1664
a(lp1665
a(lp1666
a(lp1667
g706
aa(lp1668
a(lp1669
g1650
ag576
aa(lp1670
g576
aa(lp1671
g1650
ag576
aa(lp1672
a(lp1673
a(lp1674
a(lp1675
g121
aa(lp1676
g576
aa(lp1677
a(lp1678
g706
ag587
aa(lp1679
a(lp1680
a(lp1681
g727
ag46
ag694
aa(lp1682
a(lp1683
g121
ag102
aa(lp1684
a(lp1685
a(lp1686
g848
ag118
aa(lp1687
g100
aa(lp1688
a(lp1689
g889
ag92
ag694
aa(lp1690
a(lp1691
a(lp1692
g694
aa(lp1693
g576
aa(lp1694
a(lp1695
a(lp1696
g576
aa(lp1697
g706
ag1111
aa(lp1698
g706
ag17
ag6
aa(lp1699
g706
ag8
ag889
ag92
ag694
aa(lp1700
a(lp1701
g37
aa(lp1702
g727
aa(lp1703
g694
aa(lp1704
g694
aa(lp1705
g137
ag694
aa(lp1706
g332
ag692
ag6
aa(lp1707
g694
aa(lp1708
g802
ag696
aa(lp1709
g77
ag10
ag576
aa(lp1710
a(lp1711
a(lp1712
g316
aa(lp1713
a(lp1714
a(lp1715
g576
aa(lp1716
g706
ag587
aa(lp1717
g706
ag121
aa(lp1718
S'gender'
p1719
aa(lp1720
a(lp1721
g1111
aa(lp1722
g587
aa(lp1723
g916
ag46
ag694
aa(lp1724
g1111
ag889
ag92
ag734
aa(lp1725
a(lp1726
g694
aa(lp1727
g727
aa(lp1728
g916
aa(lp1729
a(lp1730
g868
ag576
aa(lp1731
g576
aa(lp1732
g576
aa(lp1733
g916
ag694
aa(lp1734
a(lp1735
g316
ag844
ag694
ag6
ag153
aa(lp1736
g782
ag783
ag53
aa(lp1737
a(lp1738
a(lp1739
g16
aa(lp1740
g578
aa(lp1741
a(lp1742
a(lp1743
a(lp1744
g694
aa(lp1745
a(lp1746
g916
aa(lp1747
g802
ag102
aa(lp1748
g37
aa(lp1749
a(lp1750
g694
aa(lp1751
a(lp1752
a(lp1753
g576
aa(lp1754
g16
ag454
ag121
ag8
ag6
aa(lp1755
g8
aa(lp1756
g332
ag6
aa(lp1757
a(lp1758
g121
aa(lp1759
a(lp1760
g706
ag46
aa(lp1761
g706
ag694
aa(lp1762
g576
ag454
ag102
ag6
aa(lp1763
g773
aa(lp1764
a(lp1765
a(lp1766
a(lp1767
g727
aa(lp1768
g916
aa(lp1769
a(lp1770
a(lp1771
g576
aa(lp1772
g576
aa(lp1773
a(lp1774
g694
aa(lp1775
g454
aa(lp1776
g8
aa(lp1777
g706
ag17
aa(lp1778
g6
aa(lp1779
g576
ag8
ag17
ag54
aa(lp1780
g1123
ag121
ag20
aa(lp1781
a(lp1782
g260
ag486
ag93
ag53
ag17
ag54
aa(lp1783
g454
ag53
ag54
aa(lp1784
g587
ag369
ag98
aa(lp1785
g576
ag697
ag444
ag454
ag1138
ag93
ag17
ag320
aa(lp1786
g1111
ag53
ag98
aa(lp1787
g121
ag98
aa(lp1788
g10
ag576
aa(lp1789
g916
ag694
aa(lp1790
a(lp1791
a(lp1792
a(lp1793
a(lp1794
g692
aa(lp1795
g868
ag10
ag49
ag316
ag8
ag782
ag783
ag3
ag17
aa(lp1796
g693
ag50
ag51
ag694
aa(lp1797
g100
ag46
ag1043
ag734
ag53
aa(lp1798
g444
ag668
aS'food_security'
p1799
ag23
ag41
aa(lp1800
a(lp1801
g706
ag37
ag477
ag587
ag692
aa(lp1802
a(lp1803
g8
ag17
ag320
aa(lp1804
g10
ag916
ag694
ag6
aa(lp1805
g37
aa(lp1806
g694
aa(lp1807
a(lp1808
g706
ag694
aa(lp1809
g121
aa(lp1810
g100
ag53
aa(lp1811
g640
aa(lp1812
g100
ag46
ag6
aa(lp1813
g121
ag519
aa(lp1814
g49
ag454
aa(lp1815
g53
ag98
aa(lp1816
g121
aa(lp1817
g332
ag121
ag102
ag53
aa(lp1818
a(lp1819
g707
aa(lp1820
a(lp1821
g727
aa(lp1822
a(lp1823
g23
aa(lp1824
a(lp1825
g98
ag17
ag6
aS'mitigation_and_adaptation'
p1826
aa(lp1827
g868
ag13
ag707
aa(lp1828
g970
ag1826
aa(lp1829
a(lp1830
a(lp1831
g578
aa(lp1832
a(lp1833
a(lp1834
g578
ag10
ag49
ag782
ag783
ag794
ag50
ag51
ag694
aa(lp1835
g706
ag1379
ag454
ag311
ag694
aa(lp1836
a(lp1837
g8
ag793
ag125
ag794
ag17
aa(lp1838
g52
ag798
ag707
aa(lp1839
g23
ag52
aa(lp1840
a(lp1841
g578
aa(lp1842
g10
aa(lp1843
g10
ag13
ag8
aa(lp1844
g16
ag10
aa(lp1845
g1465
ag77
ag10
ag13
ag6
aa(lp1846
g332
ag6
aa(lp1847
a(lp1848
g844
aa(lp1849
g100
aa(lp1850
a(lp1851
g16
aa(lp1852
g13
aa(lp1853
g706
ag889
ag92
ag694
aa(lp1854
a(lp1855
g316
ag53
aa(lp1856
a(lp1857
a(lp1858
g868
ag576
ag316
ag121
ag693
ag50
ag51
ag844
ag694
ag53
aa(lp1859
g137
ag311
aa(lp1860
a(lp1861
g53
aa(lp1862
a(lp1863
a(lp1864
g13
aa(lp1865
g1650
ag576
aS'importance_of_adaptation'
p1866
ag970
aS'poverty_eradication'
p1867
ag121
aa(lp1868
g16
ag13
ag576
aa(lp1869
a(lp1870
a(lp1871
a(lp1872
g1043
aa(lp1873
g8
ag692
ag93
ag53
aa(lp1874
g706
aa(lp1875
g1867
ag121
ag692
ag773
ag1826
aa(lp1876
g102
ag93
ag94
aa(lp1877
a(lp1878
a(lp1879
g706
ag694
aa(lp1880
a(lp1881
g868
ag49
ag706
ag693
ag50
ag51
ag694
aa(lp1882
g868
ag10
ag316
ag706
ag694
aa(lp1883
a(lp1884
a(lp1885
g1111
ag37
ag901
aa(lp1886
g10
aa(lp1887
g52
ag33
aa(lp1888
g848
ag1130
ag706
ag1379
ag694
aa(lp1889
g848
ag706
ag1379
ag137
ag694
ag41
aa(lp1890
g53
aa(lp1891
a(lp1892
a(lp1893
g332
aa(lp1894
g868
aa(lp1895
a(lp1896
g1465
ag16
ag10
aa(lp1897
g16
ag576
aa(lp1898
g16
ag10
ag13
aa(lp1899
g10
ag53
aa(lp1900
g782
ag783
ag53
ag6
aa(lp1901
g578
ag10
ag694
aa(lp1902
g868
ag10
ag49
ag316
ag782
ag783
ag53
ag6
aa(lp1903
g578
ag693
ag50
ag51
ag694
aa(lp1904
a(lp1905
a(lp1906
g1111
ag889
ag92
aa(lp1907
g706
ag694
aa(lp1908
g100
ag674
aa(lp1909
g793
ag782
ag783
aa(lp1910
a(lp1911
g10
aa(lp1912
g8
ag6
aa(lp1913
a(lp1914
a(lp1915
g53
aa(lp1916
a(lp1917
a(lp1918
g578
ag13
ag694
aa(lp1919
g576
aa(lp1920
g16
ag10
aa(lp1921
g1465
ag10
aa(lp1922
g1650
ag16
ag970
ag6
aa(lp1923
g16
ag10
ag6
aa(lp1924
g868
ag576
aa(lp1925
a(lp1926
a(lp1927
a(lp1928
g454
ag41
aa(lp1929
g13
ag93
ag53
aa(lp1930
g49
ag8
ag17
aa(lp1931
g706
ag454
ag121
ag8
ag98
ag189
aa(lp1932
g33
ag93
ag94
ag55
aa(lp1933
g121
aa(lp1934
g706
ag454
ag8
aa(lp1935
a(lp1936
g1866
ag692
ag93
aa(lp1937
a(lp1938
g137
ag20
aa(lp1939
g1592
ag37
aa(lp1940
g13
aa(lp1941
g37
aa(lp1942
g332
ag17
aa(lp1943
g44
aa(lp1944
g706
aa(lp1945
g23
ag692
aa(lp1946
g37
aa(lp1947
g868
aa(lp1948
g578
aa(lp1949
a(lp1950
g121
aa(lp1951
g868
ag578
ag121
aa(lp1952
g121
ag53
aa(lp1953
g121
ag8
aa(lp1954
g454
ag93
ag94
aa(lp1955
a(lp1956
g454
ag8
ag23
ag53
ag6
ag718
aa(lp1957
g576
ag706
aa(lp1958
a(lp1959
g23
aa(lp1960
g23
ag53
aa(lp1961
g8
ag6
aa(lp1962
g137
aa(lp1963
g1799
ag121
ag93
ag6
aa(lp1964
g121
ag93
ag53
aa(lp1965
g706
ag8
ag137
ag844
aa(lp1966
g576
ag316
aa(lp1967
g578
aa(lp1968
g13
ag332
aa(lp1969
g868
ag13
aa(lp1970
g868
aa(lp1971
g868
aa(lp1972
a(lp1973
g868
ag10
aa(lp1974
a(lp1975
g1465
ag692
ag693
ag50
ag51
ag694
aa(lp1976
g444
ag668
ag1799
ag121
ag3
aa(lp1977
g1592
aa(lp1978
g706
ag37
ag477
ag587
ag692
aa(lp1979
a(lp1980
g8
ag17
ag320
aa(lp1981
g916
ag694
aa(lp1982
g694
aa(lp1983
g121
ag694
aa(lp1984
a(lp1985
g706
ag1867
ag8
ag102
aa(lp1986
g1465
aa(lp1987
g311
aa(lp1988
a(lp1989
a(lp1990
g17
aa(lp1991
g868
ag576
ag6
aa(lp1992
g706
ag889
ag92
aa(lp1993
g868
aa(lp1994
a(lp1995
a(lp1996
a(lp1997
a(lp1998
g53
aa(lp1999
g49
ag53
aa(lp2000
a(lp2001
g576
ag6
aa(lp2002
g868
aa(lp2003
a(lp2004
a(lp2005
a(lp2006
g868
aa(lp2007
a(lp2008
a(lp2009
g709
ag121
aa(lp2010
a(lp2011
g121
aa(lp2012
a(lp2013
g23
aa(lp2014
g43
ag54
ag771
ag1014
aa(lp2015
a(lp2016
g102
ag773
aa(lp2017
g868
aS'sccf'
p2018
ag49
ag316
ag8
ag694
ag17
aa(lp2019
g706
ag694
aa(lp2020
g694
ag1396
aa(lp2021
g773
ag779
aa(lp2022
a(lp2023
g332
ag17
aS'technology_development'
p2024
ag84
ag6
aa(lp2025
a(lp2026
g798
ag799
aa(lp2027
a(lp2028
g694
aa(lp2029
g8
aa(lp2030
g1465
ag10
ag2018
ag6
aa(lp2031
g16
ag13
ag576
ag970
ag373
aa(lp2032
g16
aa(lp2033
g8
ag526
aa(lp2034
a(lp2035
a(lp2036
g694
aa(lp2037
a(lp2038
g868
aa(lp2039
g576
ag2018
aa(lp2040
a(lp2041
g694
aa(lp2042
g868
aa(lp2043
g868
ag2018
ag706
ag694
ag6
aa(lp2044
g53
aa(lp2045
g188
ag8
ag53
ag6
aa(lp2046
g53
aa(lp2047
a(lp2048
a(lp2049
a(lp2050
g316
ag1719
ag121
ag6
aa(lp2051
g706
aa(lp2052
g694
aa(lp2053
a(lp2054
g773
ag779
aa(lp2055
g17
ag6
aa(lp2056
g332
ag798
ag799
aa(lp2057
g868
ag13
aa(lp2058
a(lp2059
g16
aa(lp2060
a(lp2061
g13
aa(lp2062
g1465
ag16
ag13
ag2018
ag93
ag6
aa(lp2063
g1465
ag13
aa(lp2064
g578
aa(lp2065
g2018
ag694
ag6
aa(lp2066
g1465
ag868
ag2018
ag694
ag17
aa(lp2067
a(lp2068
a(lp2069
g13
ag121
aa(lp2070
g706
ag1138
ag98
ag189
aa(lp2071
a(lp2072
a(lp2073
g868
ag576
aa(lp2074
a(lp2075
g8
ag692
aa(lp2076
g2018
ag848
aa(lp2077
a(lp2078
g694
aa(lp2079
a(lp2080
g43
aa(lp2081
g53
aa(lp2082
a(lp2083
g16
ag2018
ag6
aa(lp2084
g17
ag6
aa(lp2085
g1130
ag706
aa(lp2086
g1465
ag13
ag6
aa(lp2087
g578
ag2018
aa(lp2088
g1465
ag868
ag578
ag2018
ag706
ag694
aa(lp2089
g578
ag1014
aa(lp2090
a(lp2091
g868
ag13
aa(lp2092
g20
aa(lp2093
a(lp2094
g6
aa(lp2095
g16
aa(lp2096
g1465
ag13
ag2018
ag454
ag121
ag8
aa(lp2097
g13
ag8
ag23
ag44
aa(lp2098
g16
ag13
aa(lp2099
a(lp2100
a(lp2101
g694
aa(lp2102
g694
aa(lp2103
g706
ag694
aa(lp2104
g578
ag773
aa(lp2105
g1465
ag868
ag2018
ag706
ag694
ag6
aa(lp2106
g694
aa(lp2107
a(lp2108
g1024
ag8
aa(lp2109
g8
aa(lp2110
g868
ag16
ag332
aa(lp2111
g576
aa(lp2112
g13
ag2018
ag6
aa(lp2113
g1465
ag868
ag8
ag6
aa(lp2114
g121
aa(lp2115
g332
ag6
aa(lp2116
g694
aa(lp2117
g694
ag1396
aa(lp2118
g694
aa(lp2119
g16
ag10
ag13
ag2018
aa(lp2120
g16
ag13
aa(lp2121
g1130
ag706
ag1111
ag889
ag92
ag844
aa(lp2122
g8
aa(lp2123
g1465
aa(lp2124
g868
ag706
aa(lp2125
g868
ag13
ag332
aa(lp2126
a(lp2127
a(lp2128
a(lp2129
g706
aa(lp2130
a(lp2131
g694
aa(lp2132
a(lp2133
g54
ag1014
aa(lp2134
g706
aa(lp2135
g49
aa(lp2136
a(lp2137
g844
aa(lp2138
a(lp2139
g53
aa(lp2140
a(lp2141
a(lp2142
a(lp2143
a(lp2144
a(lp2145
a(lp2146
a(lp2147
g1043
ag694
aa(lp2148
g46
ag674
aa(lp2149
a(lp2150
a(lp2151
g706
aa(lp2152
g1465
ag2018
ag121
aa(lp2153
g8
ag23
ag409
aa(lp2154
g16
ag2018
aa(lp2155
g13
ag8
aa(lp2156
g49
ag118
ag1138
ag93
ag53
ag98
ag94
aa(lp2157
g426
ag409
ag598
ag98
aa(lp2158
g444
ag121
aa(lp2159
g1867
ag454
ag1799
ag23
ag320
aa(lp2160
g1465
ag260
ag41
aa(lp2161
g8
ag93
ag1826
aa(lp2162
a(lp2163
g13
ag2018
aa(lp2164
g868
aa(lp2165
a(lp2166
g1465
ag2018
ag373
aa(lp2167
a(lp2168
g576
aa(lp2169
g13
ag100
aa(lp2170
g868
ag2018
ag373
ag692
aa(lp2171
g1465
ag2018
ag8
ag17
aa(lp2172
g8
ag17
ag84
aa(lp2173
g454
ag121
ag8
ag587
ag486
ag598
ag98
ag17
ag6
ag54
ag1826
aa(lp2174
g121
ag8
ag369
ag84
aa(lp2175
g454
ag8
ag426
ag100
ag53
ag17
ag2024
ag84
ag6
aa(lp2176
g576
ag260
ag8
ag1450
ag486
ag53
ag98
ag189
ag272
ag17
ag84
ag6
ag56
aa(lp2177
a(lp2178
g260
aa(lp2179
g576
ag102
ag409
ag486
ag6
aa(lp2180
g1465
ag576
ag709
ag706
ag8
ag587
ag98
ag272
ag17
ag6
aa(lp2181
g576
ag706
ag23
ag17
ag718
ag1826
aa(lp2182
a(lp2183
a(lp2184
g1465
ag576
ag325
aa(lp2185
a(lp2186
a(lp2187
g692
aa(lp2188
g1465
ag16
ag10
ag2018
ag49
ag316
ag706
ag693
ag50
ag51
ag694
ag6
aa(lp2189
a(lp2190
g121
aa(lp2191
g444
ag1799
ag121
ag3
aa(lp2192
a(lp2193
g706
ag37
ag587
ag692
aa(lp2194
a(lp2195
g8
ag17
ag320
aa(lp2196
g694
aa(lp2197
g121
ag694
aa(lp2198
g706
ag1867
ag8
ag102
aa(lp2199
g1465
ag889
ag92
ag694
aa(lp2200
g10
ag694
aa(lp2201
g779
aa(lp2202
g43
aa(lp2203
g8
ag6
aa(lp2204
a(lp2205
g8
aa(lp2206
g868
ag6
aa(lp2207
g576
ag706
ag674
ag693
ag50
ag51
ag694
aS'maritime_transport'
p2208
aa(lp2209
g444
aa(lp2210
a(lp2211
g102
ag6
aa(lp2212
g121
ag587
ag20
aa(lp2213
g1650
ag13
ag576
ag970
ag773
ag6
ag718
aa(lp2214
g692
aa(lp2215
g49
ag53
aa(lp2216
a(lp2217
a(lp2218
a(lp2219
g779
ag694
aa(lp2220
g706
aa(lp2221
g773
ag771
ag1014
ag2208
aa(lp2222
g798
aa(lp2223
a(lp2224
g576
ag8
aa(lp2225
g778
ag8
ag718
aa(lp2226
g1650
ag576
aa(lp2227
g576
aa(lp2228
g674
aa(lp2229
g692
ag53
aa(lp2230
g868
ag10
ag49
ag316
ag706
ag693
ag50
ag51
ag694
ag6
aa(lp2231
g868
aa(lp2232
g868
aa(lp2233
g1465
ag16
ag10
ag576
ag2018
aa(lp2234
g16
ag576
ag2018
aa(lp2235
a(lp2236
g10
aa(lp2237
g16
aa(lp2238
g16
ag2018
aa(lp2239
a(lp2240
a(lp2241
g578
ag23
aa(lp2242
a(lp2243
a(lp2244
g8
aa(lp2245
a(lp2246
g8
ag84
ag6
aa(lp2247
g17
aa(lp2248
a(lp2249
S'food'
p2250
ag188
ag311
aa(lp2251
g694
aa(lp2252
g798
aa(lp2253
g1123
ag706
aa(lp2254
a(lp2255
g692
aa(lp2256
g868
ag10
ag121
ag6
ag707
aa(lp2257
g1867
ag8
ag98
ag189
aa(lp2258
g848
ag706
ag53
aa(lp2259
g848
ag46
ag98
ag189
ag94
ag54
ag56
aa(lp2260
a(lp2261
g121
ag778
ag53
aa(lp2262
g868
aa(lp2263
a(lp2264
g100
aa(lp2265
a(lp2266
g1465
ag10
ag2018
aa(lp2267
g17
ag6
aa(lp2268
g778
ag325
ag43
aa(lp2269
g43
ag320
aa(lp2270
g1379
ag41
ag43
aa(lp2271
g16
ag41
ag43
aa(lp2272
g43
ag53
aa(lp2273
g668
ag121
aa(lp2274
g8
aa(lp2275
g668
ag778
ag2208
aa(lp2276
g13
ag8
ag369
aa(lp2277
g2250
ag668
ag1138
aa(lp2278
g1379
ag1138
aa(lp2279
g121
ag778
aa(lp2280
a(lp2281
g1866
ag8
ag17
ag718
aa(lp2282
g848
ag706
ag46
ag369
aa(lp2283
a(lp2284
g868
ag576
ag49
ag316
ag121
ag598
ag17
ag6
ag707
aa(lp2285
g373
aa(lp2286
g706
ag55
aa(lp2287
g1866
ag6
ag1826
aa(lp2288
g121
aa(lp2289
g10
ag706
ag53
aa(lp2290
g13
ag8
aa(lp2291
g1866
ag8
ag17
aa(lp2292
g121
ag311
aa(lp2293
g16
ag13
ag576
ag970
ag8
aa(lp2294
g868
ag13
aa(lp2295
a(lp2296
g6
aa(lp2297
a(lp2298
a(lp2299
g94
aa(lp2300
g46
ag94
ag84
aa(lp2301
g844
ag189
ag17
ag54
aa(lp2302
g121
ag17
aa(lp2303
g121
aa(lp2304
g53
ag17
ag54
aa(lp2305
g93
ag53
ag94
ag2024
aa(lp2306
g694
aS'post-2012'
p2307
aa(lp2308
g10
ag576
ag316
ag779
ag694
ag6
aa(lp2309
g121
ag8
ag598
ag272
ag94
ag17
aa(lp2310
g17
aa(lp2311
g93
ag55
aa(lp2312
g16
ag100
aa(lp2313
g1465
ag10
ag13
ag2018
aa(lp2314
g706
ag793
ag125
ag94
ag55
aa(lp2315
g16
aa(lp2316
a(lp2317
g6
aa(lp2318
g13
ag576
ag970
aa(lp2319
g889
ag92
ag734
ag694
aa(lp2320
g694
aa(lp2321
a(lp2322
g17
ag6
aa(lp2323
g692
aa(lp2324
g706
ag889
ag92
ag779
ag694
ag6
aa(lp2325
g1130
ag706
aa(lp2326
g848
ag706
aa(lp2327
g1024
ag706
aS'international_transaction_log'
p2328
aa(lp2329
g6
aa(lp2330
g694
aa(lp2331
g868
ag332
aa(lp2332
a(lp2333
a(lp2334
a(lp2335
a(lp2336
a(lp2337
a(lp2338
a(lp2339
S'building_blocks'
p2340
aa(lp2341
a(lp2342
a(lp2343
a(lp2344
a(lp2345
a(lp2346
g706
ag692
aa(lp2347
g10
ag576
ag316
ag779
ag694
ag6
ag707
aa(lp2348
a(lp2349
a(lp2350
g1024
ag706
aa(lp2351
g2328
aa(lp2352
g694
aa(lp2353
g844
ag694
aa(lp2354
g93
ag94
aa(lp2355
g93
ag53
ag17
aa(lp2356
g121
aa(lp2357
a(lp2358
a(lp2359
a(lp2360
a(lp2361
g8
ag17
ag6
ag44
aa(lp2362
a(lp2363
a(lp2364
a(lp2365
g10
ag576
ag6
aa(lp2366
a(lp2367
g6
aa(lp2368
g1650
ag13
ag576
ag970
aa(lp2369
g100
aa(lp2370
a(lp2371
g779
ag694
aa(lp2372
g706
aa(lp2373
g54
ag1014
aa(lp2374
a(lp2375
a(lp2376
g6
aa(lp2377
g49
aa(lp2378
g798
aa(lp2379
a(lp2380
a(lp2381
a(lp2382
g13
aa(lp2383
g578
aa(lp2384
g8
aa(lp2385
g868
aa(lp2386
a(lp2387
a(lp2388
g674
aa(lp2389
g10
aa(lp2390
g1465
ag16
ag10
ag13
ag2018
aa(lp2391
g100
aa(lp2392
a(lp2393
g576
aa(lp2394
g10
ag576
aa(lp2395
g13
aa(lp2396
a(lp2397
g102
aa(lp2398
g778
ag32
aa(lp2399
g93
ag53
aa(lp2400
g454
aa(lp2401
a(lp2402
g121
ag718
aa(lp2403
a(lp2404
g8
aa(lp2405
g1799
ag44
ag320
aa(lp2406
g16
aa(lp2407
g1866
ag454
aa(lp2408
g311
aa(lp2409
a(lp2410
g13
ag1867
ag121
aa(lp2411
g587
aa(lp2412
g8
aa(lp2413
g121
ag8
ag102
ag6
ag1826
aa(lp2414
g1867
ag121
ag23
aa(lp2415
g49
ag53
aa(lp2416
g188
aa(lp2417
g23
aa(lp2418
g640
aa(lp2419
a(lp2420
g6
aa(lp2421
g576
ag454
ag121
ag8
ag23
ag369
ag94
ag6
ag320
aa(lp2422
g709
ag311
ag320
aa(lp2423
g121
ag53
aa(lp2424
a(lp2425
g640
aa(lp2426
g121
aa(lp2427
g121
aa(lp2428
a(lp2429
g778
aa(lp2430
g121
aa(lp2431
g43
aa(lp2432
g2250
ag778
aa(lp2433
g576
ag6
aa(lp2434
g8
aa(lp2435
g1867
aa(lp2436
g13
ag778
ag23
ag486
aa(lp2437
g1867
ag121
ag17
aa(lp2438
g121
ag93
ag55
aa(lp2439
g2307
ag17
aa(lp2440
g8
aa(lp2441
g6
aa(lp2442
g17
aa(lp2443
g8
ag409
aa(lp2444
g8
ag466
ag272
ag6
aa(lp2445
g409
aa(lp2446
g272
ag17
ag6
aa(lp2447
g53
aa(lp2448
g320
aa(lp2449
g53
ag17
ag55
aa(lp2450
g8
aa(lp2451
g8
ag426
ag137
ag311
ag369
ag98
aa(lp2452
g51
ag17
aa(lp2453
g49
ag23
ag773
aa(lp2454
a(lp2455
g576
ag2307
ag17
ag20
aa(lp2456
g692
aa(lp2457
g1123
ag640
aa(lp2458
g10
ag6
aa(lp2459
a(lp2460
g444
ag1799
ag121
ag3
aa(lp2461
a(lp2462
g706
ag23
ag587
ag692
aa(lp2463
g692
aa(lp2464
g1465
ag1123
ag2018
ag692
ag693
ag50
ag51
ag694
ag6
aa(lp2465
g706
ag889
ag92
aa(lp2466
g10
ag2018
ag49
ag316
ag692
ag694
ag2307
ag6
aS'buenos_aires_programme_of_work'
p2467
aS'adaptation_and_response_measures'
p2468
aa(lp2469
g1465
aa(lp2470
g692
ag53
ag598
ag94
ag84
aa(lp2471
g8
aa(lp2472
g454
ag121
ag692
ag53
ag94
aa(lp2473
g16
ag13
aa(lp2474
g316
ag8
ag17
ag707
aa(lp2475
g6
aa(lp2476
g316
ag692
aa(lp2477
g23
aa(lp2478
a(lp2479
g706
ag692
aa(lp2480
a(lp2481
a(lp2482
a(lp2483
g576
ag6
aa(lp2484
a(lp2485
g1123
ag640
aa(lp2486
g692
ag20
aa(lp2487
g13
ag1379
aa(lp2488
g23
ag37
ag52
ag93
ag94
aa(lp2489
g779
aa(lp2490
g694
aa(lp2491
g54
ag1014
ag2208
aa(lp2492
g2467
ag2468
aa(lp2493
a(lp2494
g578
aa(lp2495
a(lp2496
a(lp2497
g868
aa(lp2498
a(lp2499
a(lp2500
g316
aa(lp2501
g16
aa(lp2502
a(lp2503
g10
ag692
ag6
aa(lp2504
g1465
ag10
ag2018
aa(lp2505
g1123
ag16
ag10
ag13
ag576
aa(lp2506
g10
ag369
aa(lp2507
g2467
ag2468
aa(lp2508
g970
aa(lp2509
a(lp2510
g1123
ag10
ag692
aa(lp2511
g1123
ag16
ag10
aa(lp2512
g706
ag562
aa(lp2513
a(lp2514
g798
aa(lp2515
g121
ag137
ag311
ag53
aa(lp2516
g37
aa(lp2517
g13
ag2250
ag188
ag1799
ag778
aa(lp2518
g1130
ag53
aa(lp2519
a(lp2520
a(lp2521
a(lp2522
g49
aa(lp2523
g17
ag6
aa(lp2524
g17
ag6
aa(lp2525
g1123
ag16
ag10
ag13
ag2018
aa(lp2526
a(lp2527
g707
aa(lp2528
g692
aa(lp2529
g13
aa(lp2530
g10
ag576
ag316
ag706
ag640
ag692
ag694
ag6
aa(lp2531
g121
ag102
ag640
ag2307
aa(lp2532
a(lp2533
g694
aa(lp2534
g6
aa(lp2535
g1024
aa(lp2536
g13
aa(lp2537
g1111
ag587
ag94
ag55
aa(lp2538
a(lp2539
g1024
ag706
aa(lp2540
g848
ag587
ag98
ag189
aa(lp2541
g706
aa(lp2542
a(lp2543
g640
aa(lp2544
g37
ag692
aa(lp2545
g13
ag316
aa(lp2546
g1465
ag10
ag2018
ag53
ag108
ag55
aa(lp2547
g6
aa(lp2548
g706
aa(lp2549
g121
ag519
ag707
aa(lp2550
g694
aa(lp2551
g694
aa(lp2552
g576
aa(lp2553
g692
aa(lp2554
g10
ag640
ag692
ag6
ag2328
aS'privileges_and_immunities'
p2555
aa(lp2556
g692
ag2555
aa(lp2557
g692
aa(lp2558
g706
ag100
ag692
aa(lp2559
g706
ag6
aa(lp2560
a(lp2561
g576
ag848
ag118
ag94
ag55
aa(lp2562
a(lp2563
a(lp2564
g316
aa(lp2565
g2328
aa(lp2566
g706
aa(lp2567
g13
aa(lp2568
a(lp2569
a(lp2570
g640
ag477
ag90
aa(lp2571
a(lp2572
g798
aa(lp2573
g1465
ag1123
ag16
ag10
aa(lp2574
a(lp2575
g6
aa(lp2576
g640
ag2328
aa(lp2577
g10
ag576
ag6
ag2328
aa(lp2578
g8
aS'long-term_cooperation'
p2579
aa(lp2580
a(lp2581
g706
aa(lp2582
g848
ag706
aa(lp2583
g697
aa(lp2584
g316
aa(lp2585
g1465
ag1123
ag16
ag10
ag2018
aa(lp2586
g1465
ag2018
aa(lp2587
g10
ag13
ag369
aa(lp2588
g16
aa(lp2589
g16
aa(lp2590
g77
ag1123
ag10
aa(lp2591
g2328
aa(lp2592
a(lp2593
g576
ag1130
ag1111
ag125
aa(lp2594
a(lp2595
a(lp2596
g6
aa(lp2597
g640
ag54
aa(lp2598
a(lp2599
a(lp2600
g10
ag640
ag692
ag6
ag2328
ag2555
aa(lp2601
g692
ag2555
aa(lp2602
a(lp2603
g692
ag2555
aa(lp2604
a(lp2605
g640
aa(lp2606
g100
aa(lp2607
g848
ag706
ag2307
aa(lp2608
a(lp2609
g1123
ag10
aa(lp2610
g692
ag2328
aa(lp2611
g8
ag84
aa(lp2612
a(lp2613
g694
aa(lp2614
g694
aa(lp2615
a(lp2616
a(lp2617
g6
aa(lp2618
g10
ag706
ag640
ag692
ag694
ag2328
aa(lp2619
a(lp2620
g10
ag37
ag640
ag692
ag6
ag2208
ag2555
aa(lp2621
a(lp2622
g692
ag2555
aa(lp2623
g640
aa(lp2624
g13
ag706
ag1111
aa(lp2625
a(lp2626
a(lp2627
g37
aa(lp2628
g1014
ag2208
aa(lp2629
g1123
ag10
aa(lp2630
g1123
aa(lp2631
g16
aa(lp2632
g1465
aa(lp2633
g16
aa(lp2634
g1123
ag10
aa(lp2635
g1123
ag706
ag121
ag718
aa(lp2636
g1123
ag848
ag706
ag587
aa(lp2637
g272
ag17
ag6
ag556
aa(lp2638
g1123
aa(lp2639
g706
aa(lp2640
g640
aa(lp2641
g10
ag316
ag640
ag692
ag6
aa(lp2642
g578
aa(lp2643
a(lp2644
g2555
aa(lp2645
g692
aa(lp2646
g1123
ag10
aa(lp2647
a(lp2648
g16
aa(lp2649
g1465
aa(lp2650
g23
aa(lp2651
g779
aa(lp2652
g54
ag1014
ag2208
aa(lp2653
g121
aa(lp2654
g8
ag6
aa(lp2655
a(lp2656
g23
aa(lp2657
a(lp2658
a(lp2659
a(lp2660
a(lp2661
g706
aa(lp2662
a(lp2663
a(lp2664
g640
aa(lp2665
g706
ag598
aa(lp2666
a(lp2667
g576
aa(lp2668
g325
aa(lp2669
g8
ag23
ag587
ag137
ag311
ag3
ag320
aa(lp2670
g13
ag692
ag2307
ag6
aa(lp2671
g692
ag17
aa(lp2672
a(lp2673
a(lp2674
g454
ag6
aa(lp2675
g1465
ag1650
ag1123
ag13
ag576
ag2018
aa(lp2676
g1123
ag10
ag844
ag189
aa(lp2677
a(lp2678
g706
ag692
aa(lp2679
g102
ag640
ag2307
aa(lp2680
g2307
aa(lp2681
g640
aa(lp2682
g8
ag93
ag17
ag2024
aa(lp2683
g848
ag706
aa(lp2684
a(lp2685
g640
ag90
aa(lp2686
a(lp2687
g640
aa(lp2688
a(lp2689
g640
aa(lp2690
g13
ag692
ag2307
ag6
aa(lp2691
g576
ag709
aa(lp2692
g188
aa(lp2693
a(lp2694
g188
ag1799
ag121
aa(lp2695
g706
ag121
ag100
ag587
ag901
ag369
aa(lp2696
g16
ag13
ag576
ag2018
ag1867
ag121
ag1826
aa(lp2697
g49
ag93
aa(lp2698
g486
aa(lp2699
g23
ag102
ag2307
aa(lp2700
g121
ag102
ag640
aS'cooperative_action'
p2701
ag94
ag17
aa(lp2702
g454
ag23
ag692
ag311
aa(lp2703
g426
ag17
ag2024
ag6
ag44
aa(lp2704
g640
ag692
ag2307
aa(lp2705
g8
ag2701
ag17
aa(lp2706
g90
aa(lp2707
g576
ag320
aa(lp2708
a(lp2709
a(lp2710
g692
aa(lp2711
g692
aa(lp2712
g1123
ag90
aa(lp2713
g10
ag6
aa(lp2714
g8
ag692
ag2701
aa(lp2715
g444
ag1799
ag121
ag3
aa(lp2716
a(lp2717
g706
ag23
ag587
ag692
aa(lp2718
g692
aa(lp2719
g1465
ag1123
ag2018
ag692
ag693
ag50
ag51
ag694
ag6
aa(lp2720
g2018
ag49
ag706
ag889
ag92
ag2307
ag2467
ag2468
aa(lp2721
g692
ag2307
aa(lp2722
g2024
aa(lp2723
a(lp2724
g640
ag2307
aa(lp2725
a(lp2726
S'sectoral_approaches'
p2727
aS'intellectual_property_rights'
p2728
ag17
aa(lp2729
g260
ag23
ag53
ag94
aa(lp2730
g1123
ag16
ag692
aa(lp2731
g121
ag53
ag369
aa(lp2732
g426
ag6
aa(lp2733
g692
aa(lp2734
g2307
aa(lp2735
g6
aa(lp2736
g6
aa(lp2737
g49
ag20
aa(lp2738
a(lp2739
g23
ag674
ag692
aa(lp2740
g1123
aa(lp2741
a(lp2742
g13
ag576
ag2018
aa(lp2743
g6
ag90
aa(lp2744
a(lp2745
g1123
ag576
ag692
ag90
aa(lp2746
a(lp2747
a(lp2748
g17
ag6
ag556
aa(lp2749
a(lp2750
g49
ag23
ag694
aa(lp2751
g707
aa(lp2752
g13
ag454
ag121
aa(lp2753
a(lp2754
g13
ag692
aa(lp2755
g46
ag674
aa(lp2756
a(lp2757
g46
aa(lp2758
g10
ag316
ag692
aa(lp2759
g52
ag3
ag33
aa(lp2760
g52
aa(lp2761
g93
aa(lp2762
g52
aa(lp2763
S'historical_responsibility'
p2764
ag17
aa(lp2765
g37
ag694
ag55
aa(lp2766
g121
ag640
aa(lp2767
g188
aa(lp2768
g49
ag598
ag94
aa(lp2769
g710
ag52
aa(lp2770
a(lp2771
g1138
ag426
ag1450
aa(lp2772
g51
aa(lp2773
g798
ag43
aa(lp2774
a(lp2775
g125
aa(lp2776
a(lp2777
g49
aa(lp2778
g125
ag486
ag771
ag153
aa(lp2779
g10
ag2018
aa(lp2780
g10
ag576
aa(lp2781
g16
ag13
ag93
aa(lp2782
g16
ag10
ag6
aa(lp2783
g316
aa(lp2784
a(lp2785
g1650
ag576
aa(lp2786
g526
aa(lp2787
a(lp2788
g2307
aa(lp2789
g1123
ag10
ag640
ag692
ag6
ag2328
ag2555
aa(lp2790
g10
ag23
ag692
aa(lp2791
g1123
ag13
ag576
ag519
aa(lp2792
g49
aa(lp2793
g692
aa(lp2794
a(lp2795
g2328
aa(lp2796
g2307
ag2555
aa(lp2797
g576
ag640
aa(lp2798
g325
aa(lp2799
g576
ag706
ag53
ag98
aa(lp2800
a(lp2801
a(lp2802
a(lp2803
g10
ag526
ag2728
ag17
ag2024
ag6
aa(lp2804
g10
ag102
ag1826
aa(lp2805
a(lp2806
a(lp2807
a(lp2808
a(lp2809
a(lp2810
g1123
ag706
ag426
ag6
aa(lp2811
a(lp2812
g706
aa(lp2813
a(lp2814
a(lp2815
g51
ag94
aa(lp2816
g706
ag41
ag17
aa(lp2817
a(lp2818
g13
aa(lp2819
a(lp2820
g692
aa(lp2821
a(lp2822
g706
ag694
ag6
ag153
ag90
aa(lp2823
g587
aa(lp2824
g1123
ag13
aa(lp2825
a(lp2826
g8
aa(lp2827
a(lp2828
g692
ag694
ag2727
aa(lp2829
a(lp2830
a(lp2831
a(lp2832
g90
aa(lp2833
g49
ag706
ag6
ag54
ag1014
ag2208
ag2555
aa(lp2834
a(lp2835
a(lp2836
g1130
ag706
aa(lp2837
g1130
aa(lp2838
g793
aa(lp2839
a(lp2840
g373
ag2307
ag1014
ag2208
ag153
aa(lp2841
g1123
aa(lp2842
a(lp2843
a(lp2844
g694
ag90
aa(lp2845
a(lp2846
g576
ag20
aa(lp2847
g706
ag889
ag92
aa(lp2848
g706
ag17
aa(lp2849
g13
aa(lp2850
g16
ag10
aa(lp2851
g694
aa(lp2852
g2555
aa(lp2853
a(lp2854
a(lp2855
g6
aa(lp2856
a(lp2857
g10
ag316
ag6
ag2555
ag90
aa(lp2858
a(lp2859
g121
aa(lp2860
a(lp2861
a(lp2862
a(lp2863
a(lp2864
a(lp2865
g16
aa(lp2866
a(lp2867
a(lp2868
g316
aa(lp2869
g16
ag10
ag13
aa(lp2870
g1111
aa(lp2871
a(lp2872
g868
aa(lp2873
g2555
aa(lp2874
a(lp2875
a(lp2876
g13
ag598
ag2728
ag17
ag6
aa(lp2877
g13
ag6
aa(lp2878
g409
aa(lp2879
a(lp2880
g1465
ag1123
ag10
ag316
ag706
ag674
ag6
ag90
aa(lp2881
g2701
ag90
aa(lp2882
a(lp2883
g1123
aa(lp2884
a(lp2885
a(lp2886
a(lp2887
g37
ag52
ag153
aa(lp2888
a(lp2889
a(lp2890
a(lp2891
g13
ag316
aa(lp2892
g16
ag10
ag1826
aa(lp2893
a(lp2894
g674
aa(lp2895
a(lp2896
a(lp2897
g90
aa(lp2898
g1465
aa(lp2899
g6
aa(lp2900
a(lp2901
g706
ag8
aa(lp2902
g1465
ag1123
ag10
ag6
aa(lp2903
a(lp2904
g798
ag799
aa(lp2905
a(lp2906
a(lp2907
g426
aa(lp2908
a(lp2909
a(lp2910
g6
aa(lp2911
a(lp2912
a(lp2913
g576
aa(lp2914
a(lp2915
g16
ag316
aa(lp2916
a(lp2917
g16
aa(lp2918
a(lp2919
a(lp2920
g2328
aa(lp2921
g2555
aa(lp2922
g1123
aa(lp2923
a(lp2924
g10
aa(lp2925
g10
ag13
aa(lp2926
g16
aa(lp2927
g2018
aa(lp2928
a(lp2929
g576
aa(lp2930
g674
ag734
ag694
aa(lp2931
a(lp2932
a(lp2933
g1450
ag718
aa(lp2934
g674
ag1043
aa(lp2935
g1465
ag1123
ag10
ag2307
aa(lp2936
g640
ag90
aa(lp2937
g706
ag2701
aa(lp2938
a(lp2939
g444
ag668
ag454
ag1799
ag8
ag692
aa(lp2940
a(lp2941
g1123
aa(lp2942
g1123
ag8
ag311
ag486
ag369
aa(lp2943
g13
ag6
aa(lp2944
a(lp2945
g6
aa(lp2946
g409
aa(lp2947
g260
ag93
ag53
ag94
aa(lp2948
g37
aa(lp2949
g13
ag798
aa(lp2950
g8
ag46
ag53
aa(lp2951
g52
ag43
ag369
aa(lp2952
g13
ag8
ag23
ag587
ag53
ag369
aa(lp2953
g8
ag51
ag53
aa(lp2954
g13
aa(lp2955
g53
aa(lp2956
g8
ag98
ag189
ag17
aa(lp2957
g8
ag51
aa(lp2958
g576
ag706
aa(lp2959
a(lp2960
g1123
aa(lp2961
g706
ag2701
ag90
aa(lp2962
g454
ag102
ag46
ag2727
ag2307
ag90
aa(lp2963
g576
aa(lp2964
g13
ag706
ag8
ag51
ag93
ag6
aa(lp2965
g51
aa(lp2966
g10
ag98
ag6
aa(lp2967
g49
ag710
ag454
ag1799
ag121
ag8
ag53
ag6
aa(lp2968
g49
ag587
aa(lp2969
g706
ag121
ag1450
ag93
ag94
ag55
aa(lp2970
g17
ag2024
aa(lp2971
g706
ag23
ag2307
aa(lp2972
g8
ag37
ag53
ag84
aa(lp2973
a(lp2974
a(lp2975
g576
ag706
ag8
aa(lp2976
g90
aa(lp2977
g90
aa(lp2978
g90
aa(lp2979
a(lp2980
g692
aa(lp2981
g1123
ag426
ag2307
ag6
aa(lp2982
g444
ag1799
ag121
ag3
aa(lp2983
a(lp2984
g706
ag23
ag37
ag587
ag692
aa(lp2985
g692
aa(lp2986
g1465
ag1123
ag2018
ag692
ag693
ag50
ag51
ag694
ag6
aa(lp2987
g2307
aa(lp2988
g692
aa(lp2989
g692
ag2307
ag272
aa(lp2990
g2579
aa(lp2991
g2307
aa(lp2992
g23
ag52
ag33
aa(lp2993
g8
ag17
aa(lp2994
g692
ag90
aa(lp2995
g37
aa(lp2996
g8
ag23
ag2307
aa(lp2997
g2340
ag2307
ag369
ag17
aa(lp2998
g778
aa(lp2999
g692
aa(lp3000
a(lp3001
g1123
ag53
ag17
ag54
ag44
aa(lp3002
g49
ag8
aa(lp3003
a(lp3004
g692
ag52
aa(lp3005
g1123
ag576
ag706
ag771
ag55
aa(lp3006
g13
aa(lp3007
a(lp3008
g13
ag2307
ag6
ag90
aa(lp3009
g1123
ag8
ag46
ag1014
ag2208
aa(lp3010
a(lp3011
g587
ag692
aa(lp3012
g1123
ag2307
aa(lp3013
g778
ag2307
ag90
aa(lp3014
g53
ag98
aa(lp3015
g6
aa(lp3016
g1123
aa(lp3017
g1123
ag13
ag576
aa(lp3018
g576
ag426
aS'redd'
p3019
ag6
aS'nairobi_work_programme'
p3020
aa(lp3021
g2728
ag17
ag6
aa(lp3022
g692
aa(lp3023
a(lp3024
g6
aa(lp3025
g1123
ag316
ag426
ag6
ag3020
aa(lp3026
g6
aa(lp3027
g6
aa(lp3028
g316
aa(lp3029
g2328
aa(lp3030
g2555
aa(lp3031
a(lp3032
g16
ag10
ag84
aa(lp3033
g16
aa(lp3034
a(lp3035
a(lp3036
g2467
ag2468
aa(lp3037
g576
aa(lp3038
g316
ag369
ag17
aa(lp3039
g100
aa(lp3040
g1123
aa(lp3041
g13
ag576
aa(lp3042
g6
aa(lp3043
g426
aa(lp3044
g52
aa(lp3045
g1450
ag2307
aa(lp3046
a(lp3047
g1138
ag778
ag6
ag707
aa(lp3048
g798
aa(lp3049
g52
aa(lp3050
g706
ag794
aa(lp3051
g466
aa(lp3052
g706
aa(lp3053
a(lp3054
a(lp3055
g54
ag1014
ag2208
aa(lp3056
a(lp3057
g6
aa(lp3058
a(lp3059
g1123
ag706
ag426
ag2701
ag6
ag2328
ag90
aa(lp3060
g706
aa(lp3061
g587
aa(lp3062
g576
ag2307
aa(lp3063
g98
ag189
aa(lp3064
g90
aa(lp3065
g706
ag694
ag53
ag6
ag153
ag2555
aa(lp3066
a(lp3067
a(lp3068
g90
aa(lp3069
a(lp3070
a(lp3071
a(lp3072
a(lp3073
a(lp3074
g1123
aa(lp3075
g1123
aa(lp3076
g576
aa(lp3077
g773
ag694
ag2307
aa(lp3078
g90
aa(lp3079
g2701
ag2579
aa(lp3080
g2701
ag2307
aa(lp3081
a(lp3082
g1138
ag426
ag46
ag844
aa(lp3083
g8
ag526
ag6
aa(lp3084
a(lp3085
g2307
aa(lp3086
g1123
ag10
ag576
ag706
ag426
ag6
ag2467
ag2555
ag3020
ag90
ag707
ag2468
aa(lp3087
a(lp3088
a(lp3089
g697
ag694
aa(lp3090
g13
aa(lp3091
a(lp3092
g49
ag121
ag2701
aa(lp3093
g1123
aa(lp3094
g49
aa(lp3095
g2467
ag2468
aa(lp3096
a(lp3097
a(lp3098
g706
aa(lp3099
g16
ag10
ag8
aa(lp3100
a(lp3101
g970
aa(lp3102
g1866
ag778
ag3020
aa(lp3103
g868
aa(lp3104
g13
aa(lp3105
g8
ag2307
ag2555
aa(lp3106
g426
ag37
aa(lp3107
g6
aa(lp3108
a(lp3109
g2307
aa(lp3110
g1123
aa(lp3111
g1123
ag706
ag426
ag6
ag2467
ag90
ag2468
aa(lp3112
a(lp3113
g90
aa(lp3114
g2701
ag2579
ag6
aa(lp3115
g2728
ag84
ag6
aa(lp3116
g121
ag17
aa(lp3117
g77
ag1123
aa(lp3118
g1123
ag576
aa(lp3119
g1014
ag2208
ag153
aa(lp3120
g2467
aa(lp3121
g848
ag706
aa(lp3122
g706
aa(lp3123
g13
ag706
ag8
ag369
ag17
aa(lp3124
g13
aa(lp3125
g2328
aa(lp3126
g426
ag1132
aa(lp3127
g526
ag2728
ag6
aa(lp3128
g6
aa(lp3129
g188
ag23
aa(lp3130
g188
ag587
aa(lp3131
a(lp3132
g668
ag52
ag53
aa(lp3133
a(lp3134
a(lp3135
a(lp3136
g1123
ag10
ag576
ag316
ag426
ag6
ag2555
ag90
aa(lp3137
a(lp3138
g2307
aa(lp3139
g2701
ag6
ag1826
aa(lp3140
g369
ag17
ag84
aa(lp3141
a(lp3142
g1123
ag426
ag6
aa(lp3143
g576
ag37
aa(lp3144
a(lp3145
g426
ag37
ag369
ag17
aa(lp3146
g2579
ag369
ag17
aa(lp3147
g1123
aa(lp3148
g578
aa(lp3149
a(lp3150
a(lp3151
g316
aa(lp3152
g10
aa(lp3153
a(lp3154
a(lp3155
g16
ag13
aa(lp3156
g2555
ag90
aa(lp3157
a(lp3158
g6
aa(lp3159
g6
aa(lp3160
g426
aa(lp3161
g2307
aa(lp3162
g37
aa(lp3163
a(lp3164
g1123
ag316
ag706
ag426
ag2701
ag6
ag3020
ag90
aa(lp3165
g37
aa(lp3166
g2307
ag90
aa(lp3167
g90
aa(lp3168
g1123
ag2307
ag153
aa(lp3169
g576
ag49
ag121
ag37
ag2340
ag2701
aa(lp3170
g1123
aa(lp3171
g1123
ag576
aa(lp3172
g2467
ag3020
aa(lp3173
a(lp3174
g706
aa(lp3175
a(lp3176
g316
aa(lp3177
g16
ag10
aa(lp3178
a(lp3179
a(lp3180
g3020
aa(lp3181
a(lp3182
g426
ag1396
aa(lp3183
g13
ag526
ag6
aa(lp3184
g1123
aa(lp3185
g90
aa(lp3186
a(lp3187
a(lp3188
a(lp3189
a(lp3190
a(lp3191
g2307
ag54
ag1014
ag2208
ag153
aa(lp3192
g706
ag794
aa(lp3193
g706
aa(lp3194
g706
aa(lp3195
g694
aa(lp3196
g6
aa(lp3197
g426
ag1132
ag50
ag844
ag1396
aa(lp3198
a(lp3199
a(lp3200
a(lp3201
a(lp3202
a(lp3203
g697
aa(lp3204
g868
aa(lp3205
g10
aa(lp3206
g6
aa(lp3207
g1123
ag6
aa(lp3208
a(lp3209
g90
aa(lp3210
g2701
aa(lp3211
g90
aa(lp3212
g37
ag2340
aa(lp3213
a(lp3214
g6
aa(lp3215
g2307
aa(lp3216
a(lp3217
a(lp3218
a(lp3219
g102
ag2307
ag6
aa(lp3220
a(lp3221
g37
ag692
aa(lp3222
g1123
ag13
ag426
aa(lp3223
g2250
ag188
ag454
ag1826
aa(lp3224
g598
ag17
aa(lp3225
g1123
ag2250
ag311
aa(lp3226
g1123
ag576
ag102
ag2307
ag84
ag6
aa(lp3227
g2307
aa(lp3228
g576
ag2340
aS'shared_vision'
p3229
ag272
aa(lp3230
a(lp3231
S'mitigation_actions'
p3232
aa(lp3233
a(lp3234
g576
ag848
ag706
aa(lp3235
g13
aa(lp3236
g13
aa(lp3237
g2340
aa(lp3238
g37
ag6
aa(lp3239
g6
ag1826
aa(lp3240
g477
ag6
aa(lp3241
g6
aa(lp3242
g706
aa(lp3243
g576
ag426
ag2307
ag93
ag272
ag94
ag6
aa(lp3244
a(lp3245
g771
aa(lp3246
g2728
aa(lp3247
g1123
ag13
ag332
ag709
ag373
ag6
ag3020
aa(lp3248
g1132
ag51
aa(lp3249
g8
ag272
ag17
ag84
aa(lp3250
g13
ag6
aa(lp3251
g121
ag53
ag98
ag94
ag108
ag6
aa(lp3252
g53
ag369
ag598
ag2728
ag17
ag108
ag6
aa(lp3253
g668
ag189
aa(lp3254
g16
ag6
aa(lp3255
g13
ag526
ag369
ag17
ag6
aa(lp3256
a(lp3257
a(lp3258
g6
aa(lp3259
g2340
aa(lp3260
a(lp3261
g6
aa(lp3262
g90
aa(lp3263
a(lp3264
g692
ag2701
aa(lp3265
g692
ag2307
aa(lp3266
g1592
ag37
ag692
aa(lp3267
g692
ag2579
aa(lp3268
g692
aS'bali_action_plan'
p3269
ag2701
ag3229
ag17
aa(lp3270
a(lp3271
g8
ag3269
aa(lp3272
g6
aa(lp3273
a(lp3274
g3269
ag3229
ag2307
aa(lp3275
a(lp3276
g121
ag37
ag3232
ag98
ag17
ag6
aa(lp3277
a(lp3278
g1123
ag90
aa(lp3279
g706
aa(lp3280
a(lp3281
g2701
ag3229
ag2024
aa(lp3282
a(lp3283
g37
aa(lp3284
g1123
ag13
ag706
ag692
ag90
aa(lp3285
g3229
aa(lp3286
g426
ag3019
ag6
ag2467
ag3020
ag707
ag2468
aa(lp3287
a(lp3288
g3229
aa(lp3289
a(lp3290
a(lp3291
a(lp3292
a(lp3293
g37
ag20
aa(lp3294
g10
ag576
ag970
ag3020
aa(lp3295
a(lp3296
g3269
ag2701
aa(lp3297
g3229
ag17
aa(lp3298
g13
ag576
ag121
ag33
ag409
ag3229
ag17
aa(lp3299
a(lp3300
a(lp3301
g576
ag37
aa(lp3302
g46
ag692
aa(lp3303
g1138
aa(lp3304
g37
ag694
aa(lp3305
g13
ag6
aa(lp3306
g2250
aa(lp3307
g868
aa(lp3308
g1123
aa(lp3309
g332
aa(lp3310
g1650
ag1123
ag13
ag576
aa(lp3311
g576
ag3019
ag6
ag3020
aa(lp3312
g137
ag3020
aa(lp3313
a(lp3314
g526
ag6
aa(lp3315
g3229
aa(lp3316
g3229
aa(lp3317
a(lp3318
g2701
ag3229
aa(lp3319
g6
aa(lp3320
g3019
aa(lp3321
g13
aa(lp3322
g798
aa(lp3323
a(lp3324
g771
ag1014
ag2208
aa(lp3325
g706
aa(lp3326
g793
ag125
aa(lp3327
a(lp3328
g16
ag10
aa(lp3329
g77
ag16
ag10
aa(lp3330
a(lp3331
g13
ag576
aa(lp3332
g6
aa(lp3333
g8
ag3019
ag526
aa(lp3334
a(lp3335
a(lp3336
a(lp3337
g2307
ag2555
ag90
aa(lp3338
a(lp3339
g692
aa(lp3340
g576
ag52
ag3229
aa(lp3341
g3269
ag2340
ag2764
ag3229
aa(lp3342
g576
ag3229
aa(lp3343
g13
ag2764
ag3229
ag6
aa(lp3344
g37
ag2727
ag53
aa(lp3345
a(lp3346
g734
ag694
aa(lp3347
g3229
aa(lp3348
g694
aa(lp3349
g2307
aa(lp3350
a(lp3351
g10
ag3019
ag3229
ag6
ag3020
ag90
ag2468
aa(lp3352
g706
aa(lp3353
g576
ag848
ag121
ag2307
aa(lp3354
a(lp3355
g1123
ag1111
aa(lp3356
g100
aa(lp3357
g90
aa(lp3358
g332
ag3229
ag6
aa(lp3359
g3229
aa(lp3360
g52
aa(lp3361
g53
aa(lp3362
g694
ag153
aa(lp3363
a(lp3364
g706
ag674
ag773
ag694
ag325
aa(lp3365
g409
aa(lp3366
a(lp3367
a(lp3368
g734
aa(lp3369
g13
aa(lp3370
g90
aa(lp3371
g706
ag2555
ag90
aa(lp3372
g3019
aa(lp3373
g8
ag37
aa(lp3374
g16
ag369
ag6
aa(lp3375
g6
aa(lp3376
g13
aa(lp3377
g562
ag3020
aa(lp3378
g10
aa(lp3379
g2467
aa(lp3380
g3269
ag3229
aa(lp3381
a(lp3382
g1123
ag10
ag706
ag3019
ag6
ag90
aa(lp3383
g90
aa(lp3384
a(lp3385
g706
ag1111
aa(lp3386
g696
aa(lp3387
a(lp3388
g694
aa(lp3389
a(lp3390
a(lp3391
a(lp3392
g576
ag8
aa(lp3393
g51
ag43
aa(lp3394
g1123
ag13
ag2307
aa(lp3395
g37
ag674
aa(lp3396
g706
aa(lp3397
g706
ag889
ag92
aa(lp3398
a(lp3399
g2555
aa(lp3400
g10
ag13
aa(lp3401
g8
ag3232
aa(lp3402
a(lp3403
g49
aa(lp3404
g3019
aa(lp3405
a(lp3406
a(lp3407
g369
ag6
aa(lp3408
g2555
aa(lp3409
a(lp3410
g84
aa(lp3411
g1123
ag10
ag706
ag3019
ag3229
ag17
ag2468
aa(lp3412
a(lp3413
g778
aa(lp3414
g1123
ag320
aa(lp3415
g1123
ag13
ag1111
aa(lp3416
g90
aa(lp3417
a(lp3418
a(lp3419
g706
aa(lp3420
g706
aa(lp3421
a(lp3422
g17
aa(lp3423
g692
ag84
aa(lp3424
g13
ag706
ag90
aa(lp3425
a(lp3426
g16
aa(lp3427
a(lp3428
a(lp3429
g3019
aa(lp3430
g121
ag37
ag3229
ag3232
aa(lp3431
g1719
aa(lp3432
g3229
ag718
aa(lp3433
g37
aa(lp3434
g519
aa(lp3435
a(lp3436
a(lp3437
a(lp3438
a(lp3439
a(lp3440
g706
ag90
aa(lp3441
a(lp3442
g868
ag1123
ag10
ag706
ag17
ag108
ag2555
ag2468
aa(lp3443
g2728
ag2024
aa(lp3444
g17
aa(lp3445
g562
aa(lp3446
g8
ag108
aa(lp3447
g598
ag17
aa(lp3448
g125
ag2024
ag6
aa(lp3449
a(lp3450
g17
aa(lp3451
g108
aa(lp3452
g8
ag598
ag2728
ag84
ag6
aa(lp3453
g576
ag8
ag718
aa(lp3454
g709
aa(lp3455
g84
aa(lp3456
g1123
aa(lp3457
a(lp3458
g1111
aa(lp3459
g16
aa(lp3460
g694
aa(lp3461
a(lp3462
a(lp3463
g706
aa(lp3464
g188
aa(lp3465
g10
aa(lp3466
S'mrv'
p3467
aa(lp3468
g121
ag8
ag3232
aa(lp3469
g3019
ag3467
aa(lp3470
g3467
ag17
aa(lp3471
g706
aa(lp3472
g10
aa(lp3473
a(lp3474
g2555
ag90
aa(lp3475
g8
ag844
aa(lp3476
g10
ag694
aa(lp3477
a(lp3478
g1123
ag10
ag706
ag3019
ag17
ag2555
ag3020
ag90
aa(lp3479
a(lp3480
g562
ag84
aa(lp3481
g1123
aa(lp3482
a(lp3483
g37
aa(lp3484
g587
ag90
aa(lp3485
g90
aa(lp3486
g706
ag8
aa(lp3487
a(lp3488
a(lp3489
g17
ag2024
ag1826
aa(lp3490
g10
ag8
ag17
ag84
aa(lp3491
g17
ag108
aa(lp3492
g10
aa(lp3493
g3232
aa(lp3494
g3467
ag3232
aa(lp3495
a(lp3496
g3232
aa(lp3497
a(lp3498
g3020
aa(lp3499
g692
ag2555
aa(lp3500
g8
ag2555
ag90
aa(lp3501
a(lp3502
g1138
ag3019
aa(lp3503
g3232
ag3020
aa(lp3504
g1123
ag10
ag37
aa(lp3505
a(lp3506
a(lp3507
g2701
ag3229
ag17
aa(lp3508
a(lp3509
g1138
ag37
ag3019
ag53
ag6
aa(lp3510
a(lp3511
g3019
aa(lp3512
g706
ag17
aa(lp3513
a(lp3514
g125
aa(lp3515
g37
ag3019
aa(lp3516
g3019
aa(lp3517
a(lp3518
a(lp3519
a(lp3520
g6
aa(lp3521
a(lp3522
g2555
ag90
aa(lp3523
g10
aa(lp3524
g77
ag16
aa(lp3525
a(lp3526
a(lp3527
a(lp3528
a(lp3529
g583
aa(lp3530
a(lp3531
a(lp3532
g1123
ag90
aa(lp3533
g1123
ag706
ag2701
ag3229
ag90
aa(lp3534
a(lp3535
g454
aa(lp3536
g3019
aa(lp3537
g1123
ag466
aa(lp3538
a(lp3539
g2307
ag6
aa(lp3540
g454
ag37
ag137
aa(lp3541
g1123
ag576
ag373
ag33
aa(lp3542
g3229
aa(lp3543
g3019
ag3467
aa(lp3544
g1123
aa(lp3545
g2307
aa(lp3546
g456
ag51
ag3019
aa(lp3547
g51
aa(lp3548
g2701
ag2579
ag3229
ag6
aa(lp3549
g121
ag2579
ag3229
ag1826
aa(lp3550
g8
ag3229
ag3232
aa(lp3551
a(lp3552
a(lp3553
g1123
ag272
aa(lp3554
g6
aa(lp3555
g1123
aa(lp3556
g715
ag90
aa(lp3557
g118
ag706
ag37
aa(lp3558
g706
aa(lp3559
g576
ag706
aa(lp3560
g1123
ag3229
ag53
aa(lp3561
a(lp3562
a(lp3563
g692
aa(lp3564
a(lp3565
g692
ag2701
aa(lp3566
g1592
aa(lp3567
g37
ag692
aa(lp3568
g2579
aa(lp3569
g3269
ag2701
ag2579
ag3229
ag17
aa(lp3570
a(lp3571
a(lp3572
g715
ag692
ag693
ag50
ag51
ag694
aa(lp3573
g37
aa(lp3574
g692
aa(lp3575
a(lp3576
a(lp3577
g17
aa(lp3578
g692
aa(lp3579
g320
ag519
aa(lp3580
a(lp3581
g49
ag1866
ag8
ag53
aa(lp3582
g2340
aa(lp3583
a(lp3584
g3269
aa(lp3585
a(lp3586
g10
ag17
aa(lp3587
g1123
ag706
ag692
aa(lp3588
g426
ag3019
ag6
ag2467
ag3020
ag707
ag2468
aa(lp3589
g409
aa(lp3590
a(lp3591
g3
aa(lp3592
g426
ag3019
ag2701
ag3229
ag17
aa(lp3593
a(lp3594
g409
ag2340
aa(lp3595
g778
aa(lp3596
a(lp3597
a(lp3598
a(lp3599
g373
ag2250
ag444
aa(lp3600
g3269
ag44
aa(lp3601
g576
ag709
ag1866
ag17
aa(lp3602
g576
ag33
ag17
ag320
ag20
aa(lp3603
g37
ag715
aa(lp3604
g576
ag3467
ag519
aa(lp3605
g13
ag2340
ag3019
ag17
aa(lp3606
a(lp3607
g2701
aa(lp3608
g576
ag409
ag3269
ag320
aa(lp3609
g3019
ag3467
ag84
ag1014
ag2208
aa(lp3610
S'namas'
p3611
ag3467
ag3232
aa(lp3612
g773
aa(lp3613
a(lp3614
g100
ag17
aa(lp3615
g576
aa(lp3616
a(lp3617
g13
ag373
aa(lp3618
g54
ag771
ag519
aa(lp3619
g1450
ag98
aa(lp3620
S'climate_justice'
p3621
ag509
ag1138
aa(lp3622
g3621
ag1719
ag456
aa(lp3623
a(lp3624
g37
aa(lp3625
g715
ag693
ag50
ag51
ag694
aa(lp3626
g37
aa(lp3627
g576
aa(lp3628
g37
aa(lp3629
a(lp3630
g37
ag2307
aa(lp3631
a(lp3632
g49
ag692
ag773
aa(lp3633
g715
ag692
ag974
ag694
aa(lp3634
g694
ag409
ag320
aa(lp3635
g576
ag33
aa(lp3636
g715
aa(lp3637
g37
aa(lp3638
a(lp3639
a(lp3640
a(lp3641
a(lp3642
g37
ag773
aa(lp3643
a(lp3644
g409
ag320
aa(lp3645
a(lp3646
a(lp3647
g3019
ag2701
ag3229
ag17
aa(lp3648
g868
aa(lp3649
g49
aa(lp3650
g10
aa(lp3651
a(lp3652
g373
aa(lp3653
g13
aa(lp3654
g16
ag13
ag576
ag2307
aa(lp3655
a(lp3656
g16
aa(lp3657
g77
ag16
ag10
aa(lp3658
g13
ag576
aa(lp3659
g13
ag576
aa(lp3660
g578
aa(lp3661
a(lp3662
a(lp3663
a(lp3664
g868
ag10
aa(lp3665
g16
ag13
aa(lp3666
g13
ag576
aa(lp3667
g2467
aa(lp3668
a(lp3669
a(lp3670
g2555
aa(lp3671
g526
ag6
aa(lp3672
g798
ag3020
ag707
aa(lp3673
g706
ag3019
aa(lp3674
g526
ag6
aa(lp3675
a(lp3676
g188
ag137
ag3020
aa(lp3677
g1138
ag137
ag51
ag844
ag1396
ag3019
aa(lp3678
g798
aa(lp3679
g799
aa(lp3680
a(lp3681
g102
ag771
ag1014
ag2208
aa(lp3682
a(lp3683
g706
aa(lp3684
g37
ag583
ag715
ag674
ag694
aa(lp3685
g583
ag694
aa(lp3686
g37
ag901
ag773
ag718
aa(lp3687
g715
ag694
aa(lp3688
a(lp3689
g715
ag694
aa(lp3690
g2727
ag2701
ag3229
ag3611
ag3232
ag17
aa(lp3691
S'non-market_approaches'
p3692
aa(lp3693
g3467
aa(lp3694
a(lp3695
S'loss_and_damage'
p3696
ag794
ag153
aa(lp3697
a(lp3698
a(lp3699
a(lp3700
g3229
aa(lp3701
g771
aa(lp3702
g3269
ag153
aa(lp3703
g37
ag3269
ag3611
aa(lp3704
g10
aa(lp3705
g17
aa(lp3706
g1138
aS'reference_levels'
p3707
ag844
ag3019
aa(lp3708
a(lp3709
a(lp3710
a(lp3711
a(lp3712
g444
ag23
ag46
aa(lp3713
g3229
ag17
aa(lp3714
a(lp3715
a(lp3716
a(lp3717
a(lp3718
a(lp3719
g692
ag33
ag3269
ag3229
aa(lp3720
a(lp3721
a(lp3722
g692
ag773
ag2764
aa(lp3723
a(lp3724
a(lp3725
a(lp3726
a(lp3727
a(lp3728
g1123
ag13
ag706
aa(lp3729
g93
aa(lp3730
g848
ag706
ag466
aa(lp3731
g706
ag2727
ag2307
ag93
aa(lp3732
g706
ag121
aa(lp3733
g889
ag1043
aa(lp3734
a(lp3735
a(lp3736
g1123
ag1111
aa(lp3737
g13
ag1111
ag778
ag8
ag37
aa(lp3738
g1123
ag13
ag3621
ag1719
ag188
ag1138
aa(lp3739
a(lp3740
g3611
ag3467
aa(lp3741
g715
aa(lp3742
a(lp3743
g49
ag519
aa(lp3744
g10
aa(lp3745
g2467
ag2468
aa(lp3746
a(lp3747
a(lp3748
a(lp3749
g674
aa(lp3750
a(lp3751
g692
ag773
aa(lp3752
g37
aa(lp3753
g37
ag974
ag694
aa(lp3754
a(lp3755
a(lp3756
g3020
aa(lp3757
g17
ag84
ag6
aa(lp3758
g16
ag526
ag17
ag6
aa(lp3759
g13
aa(lp3760
g844
ag3019
aa(lp3761
g3707
ag779
ag694
aa(lp3762
g3229
aa(lp3763
g121
aa(lp3764
a(lp3765
g17
ag2024
aa(lp3766
g692
ag773
aa(lp3767
a(lp3768
a(lp3769
a(lp3770
g3229
ag17
aa(lp3771
a(lp3772
g369
aa(lp3773
a(lp3774
a(lp3775
g773
ag771
ag1014
aa(lp3776
a(lp3777
g692
aa(lp3778
g692
ag2307
aa(lp3779
g576
aa(lp3780
g692
ag773
ag2764
aa(lp3781
a(lp3782
g692
ag2307
aa(lp3783
a(lp3784
g844
ag3019
aa(lp3785
a(lp3786
g3621
aa(lp3787
a(lp3788
a(lp3789
a(lp3790
g706
aa(lp3791
g706
aa(lp3792
a(lp3793
g576
ag848
ag118
ag53
aa(lp3794
a(lp3795
g118
ag587
aa(lp3796
g13
aa(lp3797
a(lp3798
g13
ag373
aa(lp3799
g3229
aa(lp3800
a(lp3801
g17
aa(lp3802
g3269
aa(lp3803
g3707
ag3269
aa(lp3804
g3269
ag2727
ag153
aa(lp3805
g3269
ag3232
aa(lp3806
g782
ag794
aa(lp3807
g3269
aa(lp3808
a(lp3809
g10
ag3611
aa(lp3810
g49
aa(lp3811
g49
aa(lp3812
g49
aa(lp3813
g1043
ag694
aa(lp3814
g715
ag3611
aa(lp3815
a(lp3816
g37
ag583
ag773
ag694
aa(lp3817
g3707
ag3019
aa(lp3818
g578
aa(lp3819
g37
aa(lp3820
a(lp3821
a(lp3822
g100
aa(lp3823
a(lp3824
g692
aa(lp3825
a(lp3826
a(lp3827
a(lp3828
a(lp3829
g3229
ag17
aa(lp3830
g17
aa(lp3831
a(lp3832
g3269
aa(lp3833
g3269
aa(lp3834
g188
ag3269
ag2727
aa(lp3835
g3269
ag3232
aa(lp3836
a(lp3837
g2764
ag3229
aa(lp3838
a(lp3839
g1123
aa(lp3840
g706
aa(lp3841
g16
ag10
aa(lp3842
g3707
ag3019
aa(lp3843
a(lp3844
a(lp3845
g2467
ag2468
aa(lp3846
a(lp3847
a(lp3848
a(lp3849
g692
aa(lp3850
a(lp3851
a(lp3852
a(lp3853
g98
ag84
aa(lp3854
g17
aa(lp3855
a(lp3856
a(lp3857
a(lp3858
g17
aa(lp3859
g51
ag17
aa(lp3860
g692
aa(lp3861
g692
aa(lp3862
a(lp3863
g773
aa(lp3864
g17
aa(lp3865
g2307
ag17
aa(lp3866
g692
aa(lp3867
g10
ag102
ag6
ag718
aa(lp3868
a(lp3869
g576
aa(lp3870
a(lp3871
g692
aa(lp3872
g694
aa(lp3873
g715
ag901
ag692
ag694
aa(lp3874
g692
aa(lp3875
g3020
ag707
aa(lp3876
g844
ag3019
aa(lp3877
a(lp3878
g706
ag17
aa(lp3879
g526
ag6
aa(lp3880
g49
aa(lp3881
g260
ag3621
ag1719
ag456
ag8
ag3019
aa(lp3882
a(lp3883
a(lp3884
a(lp3885
g2467
aa(lp3886
g10
aa(lp3887
g576
aa(lp3888
g188
aa(lp3889
g10
ag332
aa(lp3890
g8
ag17
ag6
aa(lp3891
a(lp3892
g715
ag694
aa(lp3893
a(lp3894
g519
aa(lp3895
g583
ag692
aa(lp3896
g3611
aa(lp3897
g188
ag3269
ag2727
ag153
aa(lp3898
g3269
aa(lp3899
g694
aa(lp3900
g773
aa(lp3901
g118
aa(lp3902
g576
ag773
ag1450
aa(lp3903
a(lp3904
g37
aa(lp3905
a(lp3906
a(lp3907
a(lp3908
a(lp3909
g3269
aa(lp3910
a(lp3911
a(lp3912
g706
ag3229
ag17
aa(lp3913
a(lp3914
g694
aa(lp3915
a(lp3916
a(lp3917
g49
aa(lp3918
g49
ag692
aa(lp3919
a(lp3920
a(lp3921
g153
aa(lp3922
a(lp3923
g320
aa(lp3924
g583
ag715
aa(lp3925
g587
aa(lp3926
a(lp3927
g17
aa(lp3928
g3229
aa(lp3929
a(lp3930
a(lp3931
a(lp3932
a(lp3933
g576
aa(lp3934
a(lp3935
a(lp3936
g1123
ag2701
aa(lp3937
a(lp3938
g692
ag98
ag17
aa(lp3939
a(lp3940
g3019
ag17
aa(lp3941
g98
aa(lp3942
a(lp3943
a(lp3944
g100
aa(lp3945
a(lp3946
g692
aa(lp3947
g576
ag1138
ag3229
aa(lp3948
a(lp3949
a(lp3950
a(lp3951
g715
aa(lp3952
a(lp3953
a(lp3954
a(lp3955
a(lp3956
a(lp3957
g188
ag2727
ag2701
ag3611
ag3232
ag17
aa(lp3958
g13
ag3229
ag3611
ag3467
ag771
ag1014
ag153
aa(lp3959
a(lp3960
a(lp3961
g576
aa(lp3962
g1450
aS'market_approaches'
p3963
ag2307
aa(lp3964
g576
ag52
aa(lp3965
g100
aa(lp3966
g3269
aa(lp3967
a(lp3968
g782
aa(lp3969
g1123
aa(lp3970
a(lp3971
a(lp3972
g694
aa(lp3973
a(lp3974
g710
ag916
ag715
aa(lp3975
g576
ag1111
aa(lp3976
g1111
aa(lp3977
a(lp3978
g37
ag3611
aa(lp3979
a(lp3980
g409
aa(lp3981
a(lp3982
g692
aa(lp3983
g373
aa(lp3984
a(lp3985
a(lp3986
a(lp3987
a(lp3988
a(lp3989
a(lp3990
g102
ag692
ag773
aa(lp3991
g576
ag8
aa(lp3992
g102
ag33
aa(lp3993
g576
ag970
ag8
aa(lp3994
g37
aa(lp3995
g576
ag668
ag320
aa(lp3996
a(lp3997
g332
ag369
aa(lp3998
a(lp3999
a(lp4000
a(lp4001
a(lp4002
a(lp4003
a(lp4004
g118
ag706
ag8
aa(lp4005
g3621
aa(lp4006
g8
aa(lp4007
g53
aa(lp4008
a(lp4009
a(lp4010
a(lp4011
a(lp4012
a(lp4013
g715
ag694
aa(lp4014
a(lp4015
a(lp4016
g583
aa(lp4017
g118
ag916
ag706
ag715
aa(lp4018
g1043
ag694
aa(lp4019
g46
aa(lp4020
g576
ag715
ag694
aa(lp4021
g3229
ag3232
ag17
aa(lp4022
g153
aa(lp4023
a(lp4024
g188
ag2727
aa(lp4025
g100
aa(lp4026
g2764
aa(lp4027
g2728
ag17
aa(lp4028
g509
ag2701
ag3229
ag17
aa(lp4029
a(lp4030
a(lp4031
g332
aa(lp4032
g793
ag125
ag3232
aa(lp4033
g3963
aa(lp4034
a(lp4035
a(lp4036
a(lp4037
g576
aa(lp4038
g3963
aa(lp4039
a(lp4040
g1123
aa(lp4041
a(lp4042
a(lp4043
a(lp4044
a(lp4045
g692
ag3467
aa(lp4046
g692
aa(lp4047
g692
ag2701
aa(lp4048
a(lp4049
g1592
aa(lp4050
g37
ag692
aa(lp4051
g692
ag2579
aa(lp4052
g3269
ag2701
ag2579
ag6
aa(lp4053
a(lp4054
g17
aa(lp4055
g715
ag692
ag693
ag50
ag51
ag694
aa(lp4056
a(lp4057
g37
ag3232
aa(lp4058
a(lp4059
a(lp4060
a(lp4061
g715
ag694
aa(lp4062
a(lp4063
a(lp4064
g715
ag694
aa(lp4065
g2307
ag20
aa(lp4066
g17
aa(lp4067
g844
ag17
aa(lp4068
g640
ag692
ag53
ag17
aa(lp4069
g692
ag2701
aa(lp4070
g53
aa(lp4071
a(lp4072
a(lp4073
a(lp4074
g692
ag3269
aa(lp4075
a(lp4076
a(lp4077
g1465
ag77
ag13
ag3467
aa(lp4078
g17
aa(lp4079
S'redd+'
p4080
ag3467
ag17
aa(lp4081
g692
ag773
ag20
aa(lp4082
g102
ag692
aa(lp4083
g576
aa(lp4084
g778
ag4080
aa(lp4085
g3467
ag17
aa(lp4086
a(lp4087
a(lp4088
g37
ag692
ag773
aa(lp4089
g37
ag773
aa(lp4090
g37
ag715
ag693
ag50
ag51
ag694
ag1450
aa(lp4091
g576
ag37
ag715
ag773
ag2764
ag20
aa(lp4092
g37
ag692
aa(lp4093
g576
ag37
ag583
ag901
ag974
ag694
aa(lp4094
a(lp4095
a(lp4096
g3467
aa(lp4097
a(lp4098
g773
aa(lp4099
g3269
aa(lp4100
g576
ag3696
aa(lp4101
g3696
ag37
aS'climate_finance'
p4102
ag4080
ag3467
aS'ica'
p4103
ag17
aa(lp4104
g3229
aa(lp4105
g2340
ag3467
aa(lp4106
g46
ag4080
aa(lp4107
g715
ag692
ag694
aa(lp4108
g3229
ag17
aa(lp4109
g4080
ag17
aa(lp4110
a(lp4111
g868
aa(lp4112
g37
aa(lp4113
g10
ag576
ag6
aa(lp4114
g1465
ag868
ag10
ag576
ag2018
ag970
ag6
aa(lp4115
g16
ag10
ag576
ag2018
ag6
aa(lp4116
g10
ag2018
aa(lp4117
g578
aa(lp4118
g692
aa(lp4119
g868
aa(lp4120
g868
aa(lp4121
g316
aa(lp4122
a(lp4123
a(lp4124
a(lp4125
a(lp4126
a(lp4127
g121
ag2467
ag20
ag2468
aa(lp4128
g576
aa(lp4129
g576
aa(lp4130
g16
ag6
aa(lp4131
g3621
ag2728
ag17
ag6
aa(lp4132
a(lp4133
a(lp4134
a(lp4135
a(lp4136
g118
ag706
ag3020
ag707
aa(lp4137
g3020
aa(lp4138
g576
ag3020
aa(lp4139
g118
ag8
ag3467
aa(lp4140
g576
ag118
ag8
aa(lp4141
g3621
ag137
ag17
aa(lp4142
g311
aa(lp4143
g8
ag17
ag108
aa(lp4144
g798
aa(lp4145
g49
aa(lp4146
a(lp4147
g779
ag43
aa(lp4148
g23
ag771
ag1014
ag2208
aa(lp4149
g102
ag1014
ag153
aa(lp4150
g8
aa(lp4151
a(lp4152
g32
aa(lp4153
g706
aa(lp4154
g848
ag118
ag706
aa(lp4155
g706
ag694
ag4080
aa(lp4156
a(lp4157
a(lp4158
g98
aa(lp4159
g901
ag773
aa(lp4160
a(lp4161
a(lp4162
g84
aa(lp4163
g692
aa(lp4164
a(lp4165
g692
aa(lp4166
g692
aa(lp4167
a(lp4168
a(lp4169
a(lp4170
g3621
ag1138
ag2764
aa(lp4171
g706
ag8
aa(lp4172
g848
ag118
ag8
aa(lp4173
g706
ag692
ag773
aa(lp4174
g706
ag188
ag51
ag598
aa(lp4175
g848
ag260
ag706
ag1719
ag456
ag8
ag37
ag587
ag844
ag93
ag53
ag98
aa(lp4176
a(lp4177
a(lp4178
a(lp4179
g715
aa(lp4180
g696
aa(lp4181
g696
aa(lp4182
g1123
ag13
aa(lp4183
a(lp4184
g576
ag8
aa(lp4185
g1123
ag1138
aa(lp4186
g8
ag692
aa(lp4187
g692
aa(lp4188
g37
ag692
ag773
aa(lp4189
g3707
ag1043
ag779
ag694
aa(lp4190
g779
aa(lp4191
a(lp4192
g3696
aa(lp4193
g17
aa(lp4194
g2728
ag17
aa(lp4195
g3269
ag3611
ag3467
ag3232
aa(lp4196
g692
ag3611
ag3467
aa(lp4197
a(lp4198
a(lp4199
g692
aa(lp4200
a(lp4201
a(lp4202
a(lp4203
a(lp4204
g13
aa(lp4205
a(lp4206
g578
aa(lp4207
a(lp4208
a(lp4209
a(lp4210
g3232
aa(lp4211
g692
ag773
ag1450
aa(lp4212
g715
aa(lp4213
g706
aa(lp4214
g118
ag260
ag916
ag706
ag1111
ag587
aa(lp4215
g2307
aa(lp4216
g118
ag706
aa(lp4217
g706
aa(lp4218
g848
ag706
ag1111
aa(lp4219
g706
ag692
ag773
aa(lp4220
g706
ag692
aa(lp4221
a(lp4222
g2307
aa(lp4223
g13
ag901
ag692
ag2307
aa(lp4224
a(lp4225
g2307
aa(lp4226
a(lp4227
g2307
aa(lp4228
g901
ag2307
aa(lp4229
g696
aa(lp4230
g2555
aa(lp4231
g696
aa(lp4232
g696
ag674
aa(lp4233
g696
aa(lp4234
g674
aa(lp4235
a(lp4236
g2701
ag3229
aa(lp4237
g2764
aa(lp4238
a(lp4239
a(lp4240
g901
aa(lp4241
a(lp4242
g3707
ag694
aa(lp4243
a(lp4244
g260
ag706
ag426
ag692
ag1450
ag3963
ag53
ag84
aa(lp4245
a(lp4246
a(lp4247
a(lp4248
a(lp4249
g692
ag773
ag3269
aa(lp4250
g692
ag5
aa(lp4251
g13
ag692
ag17
aa(lp4252
a(lp4253
a(lp4254
g477
ag692
ag3269
aa(lp4255
g692
ag773
aa(lp4256
a(lp4257
g692
aa(lp4258
a(lp4259
g692
aa(lp4260
a(lp4261
a(lp4262
a(lp4263
g779
ag694
aa(lp4264
g1111
ag715
aa(lp4265
a(lp4266
g674
aa(lp4267
g692
ag694
aa(lp4268
a(lp4269
g694
aa(lp4270
a(lp4271
g3467
aa(lp4272
a(lp4273
g3232
aa(lp4274
a(lp4275
g17
aa(lp4276
g4080
ag3467
aa(lp4277
g3707
ag4080
ag3611
ag3467
aa(lp4278
g316
aa(lp4279
g576
aa(lp4280
a(lp4281
a(lp4282
a(lp4283
a(lp4284
g692
aa(lp4285
g1138
ag456
ag3020
aa(lp4286
a(lp4287
a(lp4288
g49
ag2467
ag2468
aa(lp4289
a(lp4290
g3269
aa(lp4291
g4080
ag3467
aa(lp4292
a(lp4293
a(lp4294
g1138
ag456
ag3020
ag707
aa(lp4295
g118
ag706
ag692
aa(lp4296
g49
ag6
ag1014
ag2208
aa(lp4297
g118
ag706
ag6
ag3020
aa(lp4298
g576
ag373
aa(lp4299
g668
ag778
aa(lp4300
g1138
ag53
ag98
ag17
ag3020
aa(lp4301
a(lp4302
g3229
ag6
aa(lp4303
g3467
ag3232
aa(lp4304
g576
ag1866
aa(lp4305
a(lp4306
a(lp4307
g692
ag773
aa(lp4308
g509
ag1138
ag1450
aa(lp4309
g3269
ag3467
ag4103
aa(lp4310
g576
ag3696
ag3467
aa(lp4311
g576
ag3696
ag6
aa(lp4312
g1867
ag3269
ag4080
ag3229
ag6
aa(lp4313
g692
aa(lp4314
a(lp4315
g715
ag694
aa(lp4316
a(lp4317
g576
ag37
ag46
ag773
ag694
aa(lp4318
g692
ag2764
ag3232
aa(lp4319
g692
ag773
aa(lp4320
g901
ag692
ag773
ag844
ag694
ag4080
ag189
aa(lp4321
g2555
aa(lp4322
a(lp4323
g2467
aa(lp4324
a(lp4325
g576
aa(lp4326
g16
ag10
aa(lp4327
g2018
aa(lp4328
g1138
aa(lp4329
g578
aa(lp4330
g868
ag578
ag10
ag576
ag316
ag6
ag2555
aa(lp4331
g10
ag2018
aa(lp4332
g1123
ag13
ag1029
aa(lp4333
g1123
ag13
ag576
aa(lp4334
a(lp4335
g694
aa(lp4336
g706
ag715
aa(lp4337
a(lp4338
g696
aa(lp4339
g188
ag782
ag2727
ag153
aa(lp4340
a(lp4341
a(lp4342
g3020
ag707
aa(lp4343
g1123
aa(lp4344
g17
ag1826
aa(lp4345
g3696
ag778
ag84
ag320
aa(lp4346
g3269
ag3232
aa(lp4347
g3269
aa(lp4348
g692
ag773
aa(lp4349
a(lp4350
g188
ag2727
aa(lp4351
g188
ag782
ag3229
ag6
ag1014
ag2208
ag153
aa(lp4352
a(lp4353
g706
aa(lp4354
g3611
ag3467
ag4103
aa(lp4355
a(lp4356
a(lp4357
g3229
aa(lp4358
g668
ag121
aa(lp4359
g2764
aa(lp4360
g13
ag17
aa(lp4361
a(lp4362
a(lp4363
a(lp4364
g692
aa(lp4365
g692
ag773
aa(lp4366
g692
ag773
aa(lp4367
a(lp4368
a(lp4369
g46
ag692
aa(lp4370
g46
ag3269
aa(lp4371
a(lp4372
a(lp4373
g694
aa(lp4374
g3020
ag707
aa(lp4375
a(lp4376
g3020
aa(lp4377
g8
ag3020
aa(lp4378
g668
ag3020
aa(lp4379
g13
ag8
ag17
aa(lp4380
g3020
aa(lp4381
g3229
ag3467
ag17
aa(lp4382
g692
ag844
ag4080
ag3467
aa(lp4383
a(lp4384
a(lp4385
a(lp4386
a(lp4387
g8
aa(lp4388
a(lp4389
g1123
aa(lp4390
g1123
aa(lp4391
a(lp4392
g696
ag692
aa(lp4393
a(lp4394
a(lp4395
g3707
ag46
ag779
ag694
ag53
aa(lp4396
g509
ag426
ag3229
aa(lp4397
a(lp4398
g2764
ag6
aa(lp4399
g1826
aa(lp4400
g10
ag17
aa(lp4401
a(lp4402
g13
ag576
ag311
aa(lp4403
g13
aa(lp4404
g17
aa(lp4405
g10
aa(lp4406
g3232
aa(lp4407
a(lp4408
a(lp4409
g8
ag3232
aa(lp4410
g692
aa(lp4411
g188
ag2727
aa(lp4412
g188
ag1799
ag1138
ag46
aa(lp4413
g188
ag153
aa(lp4414
g102
ag2727
ag6
ag771
ag153
aa(lp4415
g188
ag153
aa(lp4416
g692
ag773
aa(lp4417
g715
aa(lp4418
a(lp4419
a(lp4420
a(lp4421
g373
ag1450
ag17
aa(lp4422
a(lp4423
g4080
aa(lp4424
a(lp4425
a(lp4426
g4080
ag3467
ag17
aa(lp4427
a(lp4428
g3269
aa(lp4429
a(lp4430
g692
aa(lp4431
g706
aa(lp4432
g188
ag2727
ag1014
ag2208
ag153
aa(lp4433
g188
ag153
aa(lp4434
g1123
ag46
aa(lp4435
g773
aa(lp4436
g3707
ag1043
ag694
aa(lp4437
g118
ag779
aa(lp4438
g692
aa(lp4439
g692
ag773
aa(lp4440
g6
aa(lp4441
g13
ag1138
ag32
ag325
ag6
aa(lp4442
g692
ag4080
ag3467
aa(lp4443
g373
aa(lp4444
a(lp4445
g37
ag901
aa(lp4446
g37
aa(lp4447
g3269
aa(lp4448
g1123
aa(lp4449
a(lp4450
g696
aa(lp4451
a(lp4452
g692
aa(lp4453
g674
aa(lp4454
g706
aa(lp4455
g46
aa(lp4456
a(lp4457
a(lp4458
g188
ag2727
ag153
aa(lp4459
g3707
ag779
ag694
aa(lp4460
a(lp4461
g694
aa(lp4462
g118
ag715
aa(lp4463
a(lp4464
a(lp4465
g3696
aa(lp4466
g3467
ag4103
aa(lp4467
g4080
ag3467
aa(lp4468
g17
aa(lp4469
g188
ag2727
ag3232
aa(lp4470
a(lp4471
a(lp4472
a(lp4473
g692
aa(lp4474
g4080
ag3229
ag17
aa(lp4475
g692
ag3229
aa(lp4476
g692
ag3467
aa(lp4477
a(lp4478
g692
ag2701
aa(lp4479
g692
ag2579
ag53
ag17
aa(lp4480
g1592
aa(lp4481
g37
ag692
aa(lp4482
g2579
aa(lp4483
g3269
ag2701
ag2579
ag3229
ag17
aa(lp4484
g37
ag3232
aa(lp4485
a(lp4486
g426
ag37
ag844
ag1396
ag4080
ag3611
ag3467
ag3232
aa(lp4487
g77
ag10
aS'gcf'
p4488
ag17
aa(lp4489
g37
ag693
ag50
ag51
ag694
ag3
aa(lp4490
a(lp4491
g3696
ag188
ag668
ag3467
ag3020
aa(lp4492
g715
ag773
ag694
ag3229
ag17
aa(lp4493
g773
ag3269
ag3229
ag17
aa(lp4494
a(lp4495
a(lp4496
g692
aa(lp4497
g17
aa(lp4498
g8
ag23
ag692
aa(lp4499
g13
ag692
aa(lp4500
a(lp4501
a(lp4502
g121
aa(lp4503
g692
ag773
aa(lp4504
g3229
aa(lp4505
g773
ag3269
aa(lp4506
a(lp4507
a(lp4508
g693
ag50
ag51
ag694
aa(lp4509
g692
aa(lp4510
g692
ag773
aa(lp4511
g773
aa(lp4512
g576
ag23
ag692
ag773
aa(lp4513
g587
ag773
ag1014
aa(lp4514
g773
ag694
ag4080
aa(lp4515
g17
aa(lp4516
g4080
aa(lp4517
g4080
aa(lp4518
g668
ag3020
aa(lp4519
g54
ag771
ag1014
ag2208
ag153
aa(lp4520
g49
aS'methodological_guidance'
p4521
ag4080
ag6
aa(lp4522
g576
aa(lp4523
g692
aa(lp4524
a(lp4525
g773
aa(lp4526
a(lp4527
a(lp4528
g17
aa(lp4529
a(lp4530
g4080
aa(lp4531
g692
aa(lp4532
g6
aa(lp4533
a(lp4534
g694
aa(lp4535
g37
aa(lp4536
g576
ag773
aa(lp4537
g583
ag773
ag5
ag974
ag694
aa(lp4538
g576
ag901
ag692
ag974
ag694
aa(lp4539
g692
ag3269
aa(lp4540
g8
ag694
ag84
aa(lp4541
g3696
ag17
aa(lp4542
g77
ag13
ag576
ag1719
ag456
aa(lp4543
g10
ag576
ag3696
ag6
ag2328
aa(lp4544
g576
ag692
aa(lp4545
g694
aa(lp4546
g715
ag46
ag773
ag694
aa(lp4547
g692
aa(lp4548
a(lp4549
g3707
ag1043
ag694
aa(lp4550
g118
ag583
ag773
aa(lp4551
g6
aa(lp4552
a(lp4553
a(lp4554
g3696
aa(lp4555
g1650
ag576
aa(lp4556
g668
ag456
ag320
ag3020
aa(lp4557
g188
ag668
ag3020
aa(lp4558
g692
aa(lp4559
a(lp4560
a(lp4561
g17
aa(lp4562
a(lp4563
a(lp4564
a(lp4565
a(lp4566
g576
ag4488
aa(lp4567
g13
aa(lp4568
a(lp4569
a(lp4570
g848
ag118
ag706
aa(lp4571
g118
ag706
aa(lp4572
g509
aa(lp4573
a(lp4574
g1123
ag576
ag587
ag1450
aa(lp4575
g1123
ag1111
aa(lp4576
g692
ag773
aa(lp4577
a(lp4578
a(lp4579
a(lp4580
g8
ag974
aa(lp4581
g697
aa(lp4582
g974
aa(lp4583
a(lp4584
g3611
aa(lp4585
a(lp4586
g4103
aa(lp4587
a(lp4588
g8
ag1450
ag3963
aa(lp4589
a(lp4590
a(lp4591
g17
aa(lp4592
g1123
ag1111
aa(lp4593
g706
aa(lp4594
g696
ag674
aa(lp4595
g13
ag2555
aa(lp4596
g3692
ag3229
ag17
aa(lp4597
a(lp4598
a(lp4599
g692
ag773
aa(lp4600
g692
ag773
aa(lp4601
g576
ag692
ag773
aa(lp4602
a(lp4603
a(lp4604
g102
aa(lp4605
g692
ag519
aa(lp4606
g10
aa(lp4607
g13
ag37
ag3707
ag844
ag4080
ag3467
aa(lp4608
g8
ag46
ag4080
aa(lp4609
a(lp4610
g576
ag3696
aa(lp4611
g844
aa(lp4612
g4080
aa(lp4613
a(lp4614
a(lp4615
g84
aa(lp4616
a(lp4617
a(lp4618
g4488
aa(lp4619
g706
ag773
aa(lp4620
g583
aa(lp4621
g260
ag916
ag706
ag773
ag1450
aa(lp4622
g583
ag773
aa(lp4623
a(lp4624
g583
ag692
ag773
ag694
aa(lp4625
a(lp4626
g4103
aa(lp4627
g4488
aa(lp4628
g1867
ag188
ag1799
ag8
aa(lp4629
g1014
ag2208
ag153
aa(lp4630
g37
ag3707
ag844
ag4080
ag17
aa(lp4631
g3696
aa(lp4632
a(lp4633
g576
ag3696
ag4488
aa(lp4634
g576
ag17
ag320
aa(lp4635
g3229
aa(lp4636
a(lp4637
a(lp4638
a(lp4639
a(lp4640
g4080
ag6
ag54
ag1014
ag2208
ag3020
aa(lp4641
g3020
aa(lp4642
a(lp4643
a(lp4644
a(lp4645
g576
ag2467
ag2468
aa(lp4646
a(lp4647
a(lp4648
a(lp4649
g576
ag6
ag2328
aa(lp4650
g10
aa(lp4651
a(lp4652
g13
ag3696
ag188
ag1799
ag17
aa(lp4653
g1123
ag3696
ag715
aa(lp4654
g576
ag320
aa(lp4655
a(lp4656
g576
ag4488
aa(lp4657
g13
ag84
aa(lp4658
a(lp4659
g1123
ag8
aa(lp4660
g4103
aa(lp4661
g4080
ag3229
ag4103
aa(lp4662
a(lp4663
g773
ag2728
ag17
aa(lp4664
g3269
aa(lp4665
a(lp4666
g773
ag1043
ag694
aa(lp4667
a(lp4668
g1450
aa(lp4669
a(lp4670
g692
aa(lp4671
a(lp4672
g1123
ag706
ag694
ag3963
ag3229
ag17
aa(lp4673
a(lp4674
a(lp4675
g4080
aa(lp4676
g17
aa(lp4677
a(lp4678
g974
ag4103
aa(lp4679
a(lp4680
a(lp4681
g100
ag3269
ag3467
aa(lp4682
g583
ag46
ag1450
aa(lp4683
g188
ag1826
aa(lp4684
g576
aa(lp4685
a(lp4686
a(lp4687
a(lp4688
g3692
aa(lp4689
a(lp4690
g118
ag3707
ag1043
ag694
aa(lp4691
a(lp4692
g1123
aa(lp4693
g706
ag692
aa(lp4694
g3696
aa(lp4695
g3229
aa(lp4696
a(lp4697
a(lp4698
g1123
ag706
ag694
ag3692
ag2727
ag4080
aa(lp4699
a(lp4700
g13
ag773
aa(lp4701
a(lp4702
g692
aa(lp4703
g692
ag773
aa(lp4704
g692
ag773
ag325
aa(lp4705
g2340
ag94
aa(lp4706
g576
ag51
aa(lp4707
g692
ag773
ag718
aa(lp4708
g4488
aa(lp4709
g706
ag583
ag692
ag773
ag694
aa(lp4710
g3229
aa(lp4711
a(lp4712
a(lp4713
g13
ag4080
ag1826
aa(lp4714
g576
ag718
aa(lp4715
g8
aa(lp4716
a(lp4717
g2727
aa(lp4718
a(lp4719
g576
ag1450
ag3467
ag6
aa(lp4720
g13
ag153
aa(lp4721
g3692
aa(lp4722
a(lp4723
a(lp4724
g1123
ag706
ag692
ag3692
ag2727
ag6
aa(lp4725
a(lp4726
g188
ag2727
ag3229
aa(lp4727
g974
ag3229
aa(lp4728
a(lp4729
g4103
aa(lp4730
g2727
ag4080
ag6
ag1014
aa(lp4731
a(lp4732
a(lp4733
g118
ag3707
ag1043
ag694
aa(lp4734
a(lp4735
g3707
ag1043
ag43
aa(lp4736
g509
ag1138
ag773
ag84
ag519
aa(lp4737
g848
ag706
ag84
aa(lp4738
a(lp4739
g3692
aa(lp4740
a(lp4741
a(lp4742
g10
ag4488
aa(lp4743
g4080
aa(lp4744
g4080
aa(lp4745
g576
aa(lp4746
g16
ag2728
ag84
aa(lp4747
g121
ag3229
aa(lp4748
g102
ag2727
ag1014
aa(lp4749
g583
ag692
aa(lp4750
g692
ag773
ag3269
aa(lp4751
g1123
ag706
ag692
ag3692
ag2727
ag6
aa(lp4752
a(lp4753
g706
aa(lp4754
g773
aa(lp4755
g2727
ag3229
aa(lp4756
g526
aa(lp4757
g715
ag901
ag773
ag20
aa(lp4758
g1123
aa(lp4759
g4080
aa(lp4760
g37
aa(lp4761
g4103
aa(lp4762
a(lp4763
g576
aa(lp4764
g10
ag17
ag6
aa(lp4765
g848
ag706
aa(lp4766
a(lp4767
a(lp4768
g692
aa(lp4769
g13
ag409
ag4488
aa(lp4770
g692
ag2701
aa(lp4771
g692
ag773
aa(lp4772
g1592
aa(lp4773
g37
ag692
aa(lp4774
g2579
aa(lp4775
g3269
ag2701
ag3229
ag17
aa(lp4776
a(lp4777
g37
ag4080
ag3611
ag3467
ag3232
aa(lp4778
g77
ag10
ag4488
ag17
aa(lp4779
g693
ag50
ag51
ag694
ag3
aa(lp4780
g692
ag773
ag4488
ag2701
aa(lp4781
g692
ag773
aa(lp4782
g3269
aa(lp4783
a(lp4784
a(lp4785
g692
ag773
aa(lp4786
a(lp4787
g37
ag692
ag773
aa(lp4788
g4102
ag84
aa(lp4789
g4488
aa(lp4790
g692
ag773
aa(lp4791
a(lp4792
g692
ag773
ag3269
aa(lp4793
g692
ag773
aa(lp4794
a(lp4795
a(lp4796
a(lp4797
g102
ag6
aa(lp4798
a(lp4799
a(lp4800
a(lp4801
g454
ag121
ag17
aa(lp4802
a(lp4803
a(lp4804
g692
ag773
aa(lp4805
g576
ag974
ag4102
aa(lp4806
g692
ag773
aa(lp4807
g332
ag692
aa(lp4808
g1799
aa(lp4809
g6
aa(lp4810
g773
aa(lp4811
g844
ag3269
ag4080
aa(lp4812
a(lp4813
g773
aa(lp4814
g46
ag692
ag773
aa(lp4815
g583
ag3269
aa(lp4816
g692
ag773
aa(lp4817
g37
ag718
aa(lp4818
g706
ag692
ag773
aa(lp4819
g37
ag583
ag692
ag773
aa(lp4820
g37
ag715
ag409
aa(lp4821
g46
ag692
aa(lp4822
g692
ag773
ag2307
aa(lp4823
g583
ag692
ag773
aa(lp4824
g773
aa(lp4825
g576
ag773
aa(lp4826
g773
aa(lp4827
g773
aa(lp4828
g1866
ag188
ag1799
ag692
ag773
ag844
ag4080
ag3467
ag1826
aa(lp4829
g692
ag844
ag2340
ag4080
ag3611
ag3467
aa(lp4830
g454
ag1799
ag773
ag3467
ag3020
ag707
aa(lp4831
g576
ag188
ag692
ag3467
ag1826
aa(lp4832
g3621
ag2250
ag188
ag456
ag137
aa(lp4833
g8
ag37
ag844
ag4521
ag4080
ag3467
aa(lp4834
g576
ag3696
ag188
ag1799
ag8
aa(lp4835
g54
ag771
ag1014
ag2208
ag153
aa(lp4836
g1014
aa(lp4837
g8
ag692
ag17
ag3020
aa(lp4838
a(lp4839
g578
ag576
ag316
ag3696
ag3611
aa(lp4840
a(lp4841
a(lp4842
g3269
aa(lp4843
g576
ag121
ag974
ag3269
ag4102
ag2307
ag17
aa(lp4844
a(lp4845
a(lp4846
g692
ag773
aa(lp4847
g583
ag773
aa(lp4848
g583
ag715
ag692
ag773
aa(lp4849
g46
ag773
aa(lp4850
g715
ag692
ag773
aa(lp4851
g692
ag773
aa(lp4852
g583
aa(lp4853
g773
aa(lp4854
g773
ag4080
ag3467
aa(lp4855
g583
ag715
ag773
aa(lp4856
g2764
aa(lp4857
g587
ag974
ag1450
aa(lp4858
g715
ag773
aa(lp4859
g3621
ag773
aa(lp4860
g509
ag1138
aa(lp4861
a(lp4862
g715
ag773
aa(lp4863
a(lp4864
g692
ag773
aa(lp4865
g583
ag773
aa(lp4866
a(lp4867
a(lp4868
a(lp4869
a(lp4870
g576
ag692
ag773
aa(lp4871
g4080
aa(lp4872
g692
aa(lp4873
g692
aa(lp4874
g3621
ag37
aa(lp4875
g1138
ag17
aa(lp4876
g576
ag332
ag4103
aa(lp4877
g10
ag3696
ag4103
ag17
aa(lp4878
g868
ag10
ag13
ag576
ag332
ag4080
ag2728
aa(lp4879
g3696
ag1138
ag98
aa(lp4880
g576
ag332
ag316
ag848
ag3696
aa(lp4881
g706
ag692
ag17
ag6
ag2328
aa(lp4882
g456
aa(lp4883
g715
ag692
ag773
aa(lp4884
g1123
ag1111
ag718
aa(lp4885
g1123
ag13
ag332
ag1111
ag587
aa(lp4886
g706
ag369
aa(lp4887
g706
ag6
aa(lp4888
g848
ag706
ag692
ag773
aa(lp4889
g369
ag98
aa(lp4890
a(lp4891
g37
ag583
ag773
aa(lp4892
g802
ag696
aa(lp4893
a(lp4894
a(lp4895
a(lp4896
a(lp4897
g3467
aa(lp4898
g4488
aa(lp4899
a(lp4900
g4488
aa(lp4901
g456
aa(lp4902
a(lp4903
g1867
aa(lp4904
g692
ag773
aa(lp4905
g715
ag773
aa(lp4906
g901
ag773
aa(lp4907
a(lp4908
a(lp4909
g4102
ag1014
aa(lp4910
a(lp4911
g332
ag4102
ag153
aa(lp4912
g4102
aa(lp4913
a(lp4914
g13
ag4488
aa(lp4915
g576
aa(lp4916
g1123
ag848
ag706
ag715
aa(lp4917
a(lp4918
a(lp4919
g576
aa(lp4920
g37
ag84
aa(lp4921
g8
ag3232
aa(lp4922
a(lp4923
a(lp4924
g715
ag773
aa(lp4925
g692
ag773
aa(lp4926
a(lp4927
a(lp4928
g3269
aa(lp4929
a(lp4930
g2467
ag2468
aa(lp4931
g844
ag4080
ag3467
aa(lp4932
a(lp4933
a(lp4934
g188
ag794
ag4521
ag4080
ag17
aa(lp4935
g1123
ag3696
ag2728
aa(lp4936
g692
ag773
aa(lp4937
a(lp4938
a(lp4939
g373
ag3696
aa(lp4940
a(lp4941
g13
ag562
ag17
ag84
ag6
aa(lp4942
a(lp4943
g3611
aa(lp4944
g3467
aa(lp4945
g694
ag1450
aa(lp4946
g8
ag692
ag974
aa(lp4947
a(lp4948
g715
ag692
ag773
aa(lp4949
a(lp4950
g1867
ag121
ag46
ag3467
aa(lp4951
g1123
ag692
aa(lp4952
g1123
aa(lp4953
a(lp4954
a(lp4955
a(lp4956
g188
ag794
ag4521
ag4080
ag17
aa(lp4957
g1123
ag3696
ag2728
aa(lp4958
g692
ag773
aa(lp4959
a(lp4960
a(lp4961
g373
ag3696
aa(lp4962
a(lp4963
g13
ag562
ag17
ag84
ag6
aa(lp4964
a(lp4965
g3611
aa(lp4966
g3467
aa(lp4967
g694
ag1450
aa(lp4968
g8
ag692
ag974
aa(lp4969
a(lp4970
g715
ag692
ag773
aa(lp4971
a(lp4972
g1867
ag121
ag46
ag3467
aa(lp4973
g1123
ag692
aa(lp4974
g1123
aa(lp4975
a(lp4976
a(lp4977
g692
ag2701
aa(lp4978
g8
ag17
aa(lp4979
g3696
ag3467
ag17
aa(lp4980
g715
ag773
aa(lp4981
g17
aa(lp4982
a(lp4983
g715
ag692
ag773
aa(lp4984
a(lp4985
g188
aa(lp4986
g715
ag692
ag773
aa(lp4987
g373
ag773
aa(lp4988
g715
ag692
ag773
ag17
aa(lp4989
g17
ag320
aa(lp4990
g373
ag4102
aa(lp4991
g17
aa(lp4992
g188
aa(lp4993
a(lp4994
a(lp4995
g1132
ag844
ag3269
ag3467
ag17
aa(lp4996
g2307
aa(lp4997
g3269
ag1450
ag3963
aa(lp4998
g3269
aa(lp4999
a(lp5000
g121
ag3229
aa(lp5001
a(lp5002
g715
ag773
aa(lp5003
g773
aa(lp5004
g583
ag773
aa(lp5005
g1123
ag13
ag715
ag773
aa(lp5006
g901
aa(lp5007
g901
ag773
aa(lp5008
a(lp5009
a(lp5010
a(lp5011
a(lp5012
a(lp5013
a(lp5014
g1450
aa(lp5015
a(lp5016
g692
ag4102
aa(lp5017
a(lp5018
g668
ag53
aa(lp5019
g692
ag773
ag4102
ag1826
aa(lp5020
g692
ag773
ag3269
ag2579
ag6
aa(lp5021
g23
ag53
aa(lp5022
a(lp5023
g17
aa(lp5024
g46
aa(lp5025
a(lp5026
g782
ag4080
ag54
aa(lp5027
a(lp5028
a(lp5029
g3269
aa(lp5030
g583
ag773
aa(lp5031
g715
aa(lp5032
a(lp5033
g17
aa(lp5034
a(lp5035
a(lp5036
g3269
ag2208
aa(lp5037
g2307
aa(lp5038
g1450
aa(lp5039
a(lp5040
a(lp5041
a(lp5042
g3696
aa(lp5043
a(lp5044
a(lp5045
a(lp5046
g587
ag715
ag773
aa(lp5047
a(lp5048
g3696
ag692
aa(lp5049
a(lp5050
a(lp5051
a(lp5052
g4488
aa(lp5053
a(lp5054
g715
aa(lp5055
a(lp5056
a(lp5057
g373
ag3229
aa(lp5058
g576
ag3692
ag4080
aa(lp5059
g373
ag4080
aa(lp5060
g4080
aa(lp5061
g98
aa(lp5062
a(lp5063
a(lp5064
a(lp5065
a(lp5066
a(lp5067
a(lp5068
g3696
aa(lp5069
g773
aa(lp5070
g901
ag773
ag3269
aa(lp5071
g773
ag1450
aa(lp5072
g576
ag715
ag773
aa(lp5073
a(lp5074
a(lp5075
g576
ag583
ag715
ag692
ag773
aa(lp5076
g583
ag715
ag773
aa(lp5077
g583
ag901
ag773
ag1450
aa(lp5078
g773
ag1450
aa(lp5079
a(lp5080
g706
ag583
ag901
ag773
aa(lp5081
g715
ag773
aa(lp5082
g715
aa(lp5083
a(lp5084
a(lp5085
a(lp5086
a(lp5087
a(lp5088
g692
aa(lp5089
g17
aa(lp5090
a(lp5091
g37
ag692
aa(lp5092
g692
ag2579
aa(lp5093
g3269
ag2701
ag3229
ag17
aa(lp5094
a(lp5095
g426
ag37
ag844
ag1396
ag4080
ag3611
ag3467
ag3232
aa(lp5096
g77
ag10
ag4488
ag17
aa(lp5097
g693
ag50
ag51
ag694
ag3
aa(lp5098
g692
ag773
ag4488
ag2701
aa(lp5099
g3696
ag715
ag692
ag773
ag3269
ag4080
ag3467
ag320
aa(lp5100
a(lp5101
g4080
aa(lp5102
g17
aa(lp5103
g4102
aa(lp5104
g4102
ag1826
aa(lp5105
g4102
ag84
aa(lp5106
a(lp5107
g332
aa(lp5108
g793
ag782
ag125
ag794
ag17
aa(lp5109
a(lp5110
a(lp5111
a(lp5112
g93
aa(lp5113
a(lp5114
a(lp5115
g3696
ag17
aa(lp5116
g3696
aa(lp5117
g974
ag1450
ag4488
aa(lp5118
g3696
aa(lp5119
g576
ag3696
ag3269
ag98
ag20
aa(lp5120
g13
ag4080
ag3467
aa(lp5121
g3696
ag17
aa(lp5122
g3696
ag102
ag4488
ag2728
ag17
aa(lp5123
g1138
ag2764
ag369
ag598
ag98
ag189
aa(lp5124
g37
ag773
aa(lp5125
a(lp5126
a(lp5127
g773
aa(lp5128
g576
ag37
ag773
aa(lp5129
g8
aa(lp5130
g3621
ag3696
ag1138
aa(lp5131
g868
aa(lp5132
g13
ag576
ag3696
ag4488
ag17
aa(lp5133
g3696
ag51
ag4080
ag3611
ag4103
ag3232
aa(lp5134
a(lp5135
g3621
ag3696
ag509
aa(lp5136
g3696
aa(lp5137
g13
ag576
ag3696
aa(lp5138
g868
ag578
ag1123
ag576
ag727
ag1719
ag844
ag3611
ag4103
ag3232
ag17
ag6
aa(lp5139
g692
ag2555
aa(lp5140
a(lp5141
g188
aa(lp5142
g54
ag771
ag1014
ag2208
ag153
aa(lp5143
a(lp5144
g189
aa(lp5145
g37
ag692
ag844
ag4521
ag4080
ag3232
ag17
ag3020
aa(lp5146
g8
aa(lp5147
a(lp5148
a(lp5149
g1719
ag3696
ag188
aa(lp5150
a(lp5151
a(lp5152
a(lp5153
a(lp5154
g794
aa(lp5155
g125
ag794
ag272
aa(lp5156
g576
aa(lp5157
a(lp5158
g692
aa(lp5159
g4080
ag369
ag98
aa(lp5160
g13
ag84
ag6
aa(lp5161
a(lp5162
g3621
ag1719
ag1138
ag456
ag778
ag369
ag598
ag98
aa(lp5163
a(lp5164
g13
ag4080
aa(lp5165
g773
aa(lp5166
g10
ag17
aa(lp5167
g8
ag4102
ag3611
ag93
ag2728
ag94
ag84
ag6
aa(lp5168
g188
aa(lp5169
g2250
ag188
ag1799
ag320
aa(lp5170
g188
aa(lp5171
g3696
ag188
aa(lp5172
g576
ag188
ag6
aa(lp5173
g188
ag320
aa(lp5174
g1799
ag6
aa(lp5175
a(lp5176
g43
aa(lp5177
g37
aa(lp5178
g37
aa(lp5179
g1867
ag121
aa(lp5180
g121
ag8
ag3232
aa(lp5181
g3696
aa(lp5182
g576
ag3696
ag4488
aa(lp5183
g3696
ag1826
aa(lp5184
g1719
aa(lp5185
g1719
aa(lp5186
g13
ag1719
ag456
aa(lp5187
g456
ag8
aa(lp5188
g1719
ag17
aa(lp5189
g3692
ag1450
aa(lp5190
g3696
aa(lp5191
a(lp5192
a(lp5193
a(lp5194
g1123
ag13
aa(lp5195
g3467
aa(lp5196
g4488
aa(lp5197
g121
ag4488
ag84
aa(lp5198
g4488
aa(lp5199
g4488
ag2024
aa(lp5200
g10
ag332
aa(lp5201
g4080
aa(lp5202
g4080
aa(lp5203
a(lp5204
a(lp5205
a(lp5206
a(lp5207
g706
aa(lp5208
g37
aa(lp5209
g848
aa(lp5210
g1123
ag13
ag3621
ag369
aa(lp5211
g692
aa(lp5212
a(lp5213
g37
aa(lp5214
a(lp5215
g10
ag3467
ag84
aa(lp5216
a(lp5217
g46
aa(lp5218
a(lp5219
a(lp5220
a(lp5221
a(lp5222
g10
aa(lp5223
g793
ag125
ag189
aa(lp5224
g125
aa(lp5225
a(lp5226
g576
ag93
ag94
aa(lp5227
g793
ag125
ag794
ag17
ag1826
aa(lp5228
g125
ag794
aa(lp5229
g188
aa(lp5230
g188
aa(lp5231
a(lp5232
a(lp5233
g32
ag44
aa(lp5234
g32
aa(lp5235
a(lp5236
g1123
ag4488
aa(lp5237
a(lp5238
g6
aa(lp5239
a(lp5240
a(lp5241
a(lp5242
a(lp5243
a(lp5244
g3696
ag8
aa(lp5245
g17
ag2024
aa(lp5246
g2024
aa(lp5247
g4488
ag3467
ag6
aa(lp5248
g10
ag576
ag2024
aa(lp5249
g10
ag576
ag8
ag17
ag6
aa(lp5250
g4102
aa(lp5251
a(lp5252
g4102
ag3467
aa(lp5253
g576
ag369
aa(lp5254
g1450
ag3467
aa(lp5255
a(lp5256
a(lp5257
g55
aa(lp5258
g369
ag55
aa(lp5259
g8
ag55
aa(lp5260
g93
ag94
ag55
aa(lp5261
g576
aa(lp5262
g121
ag98
aa(lp5263
g53
ag94
aa(lp5264
a(lp5265
g37
ag3707
ag844
ag4521
ag4080
aa(lp5266
a(lp5267
a(lp5268
g844
ag4521
ag4080
ag3232
aa(lp5269
g8
aa(lp5270
g332
ag6
aa(lp5271
a(lp5272
a(lp5273
g3696
aa(lp5274
g13
ag576
aa(lp5275
g1123
aa(lp5276
g8
ag17
aa(lp5277
a(lp5278
a(lp5279
a(lp5280
a(lp5281
g8
ag4521
ag4080
aa(lp5282
g4080
aa(lp5283
g3696
aa(lp5284
g3696
ag17
aa(lp5285
g3696
ag17
aa(lp5286
g576
ag3696
ag4080
aa(lp5287
g3696
ag3467
aa(lp5288
a(lp5289
a(lp5290
g1826
aa(lp5291
g10
ag576
ag17
ag84
aa(lp5292
a(lp5293
a(lp5294
a(lp5295
g3467
ag17
aa(lp5296
g102
ag974
aa(lp5297
g3467
aa(lp5298
a(lp5299
g46
ag1450
aa(lp5300
g576
ag697
ag692
ag3467
aa(lp5301
g121
aa(lp5302
g13
ag6
aa(lp5303
g709
ag37
aa(lp5304
g3696
ag778
ag20
ag1826
aa(lp5305
g10
ag332
ag17
ag2024
ag1826
aa(lp5306
g598
ag2728
ag17
ag6
aa(lp5307
g17
aa(lp5308
g17
aa(lp5309
a(lp5310
a(lp5311
g13
ag17
aa(lp5312
g3696
ag692
aa(lp5313
g8
ag37
ag53
aa(lp5314
g37
ag3707
ag844
ag4521
ag4080
aa(lp5315
g8
ag37
ag3707
ag844
aa(lp5316
a(lp5317
g8
ag17
ag6
aa(lp5318
a(lp5319
a(lp5320
a(lp5321
a(lp5322
g706
aa(lp5323
a(lp5324
a(lp5325
a(lp5326
g3696
ag4080
ag17
aa(lp5327
g1450
aa(lp5328
a(lp5329
g4521
ag4080
aa(lp5330
g844
ag3232
aa(lp5331
g17
aa(lp5332
g576
ag188
aa(lp5333
a(lp5334
a(lp5335
a(lp5336
a(lp5337
g576
aa(lp5338
g37
aa(lp5339
a(lp5340
a(lp5341
a(lp5342
g3621
ag188
ag509
ag1799
ag1138
ag1043
ag4080
aa(lp5343
g773
aa(lp5344
a(lp5345
a(lp5346
a(lp5347
a(lp5348
g727
aa(lp5349
a(lp5350
g3696
ag1138
ag778
aa(lp5351
g13
ag1719
ag456
aa(lp5352
g1866
ag373
ag17
aa(lp5353
g576
ag3696
aa(lp5354
a(lp5355
a(lp5356
a(lp5357
g4488
aa(lp5358
g93
ag94
ag17
aa(lp5359
g444
ag125
ag794
aa(lp5360
g3467
ag17
aa(lp5361
g576
ag409
aa(lp5362
g692
aa(lp5363
g2340
aa(lp5364
a(lp5365
a(lp5366
a(lp5367
a(lp5368
g2340
ag6
aa(lp5369
a(lp5370
a(lp5371
a(lp5372
a(lp5373
a(lp5374
g3621
aa(lp5375
a(lp5376
g706
aa(lp5377
g3611
ag3467
ag4103
aa(lp5378
a(lp5379
a(lp5380
a(lp5381
a(lp5382
g4080
aa(lp5383
g3696
ag4080
aa(lp5384
g3696
aa(lp5385
g576
ag3696
ag773
ag1450
ag4080
aa(lp5386
g3696
ag8
ag4080
ag17
aa(lp5387
a(lp5388
g576
ag3696
ag6
aa(lp5389
g17
ag2024
aa(lp5390
a(lp5391
a(lp5392
g3611
aa(lp5393
a(lp5394
a(lp5395
g848
ag706
ag1111
aa(lp5396
g98
ag189
aa(lp5397
g3467
aa(lp5398
g4080
aa(lp5399
g53
aa(lp5400
g773
aa(lp5401
g98
aa(lp5402
g3696
aa(lp5403
a(lp5404
a(lp5405
g3611
ag3467
ag369
aa(lp5406
a(lp5407
a(lp5408
g576
ag848
ag3269
aa(lp5409
g576
ag6
aa(lp5410
g1826
aa(lp5411
a(lp5412
g4488
ag4080
aa(lp5413
a(lp5414
a(lp5415
g188
ag456
ag50
ag4102
aa(lp5416
g1719
aa(lp5417
a(lp5418
a(lp5419
g4102
aa(lp5420
g4102
aa(lp5421
g325
ag369
aa(lp5422
g576
ag332
aa(lp5423
g16
ag84
aa(lp5424
g4488
ag84
aa(lp5425
g1123
aa(lp5426
g848
ag4102
ag4488
aa(lp5427
g8
ag369
aa(lp5428
g369
aa(lp5429
g576
aa(lp5430
a(lp5431
g4102
ag84
aa(lp5432
g8
aa(lp5433
a(lp5434
a(lp5435
a(lp5436
g576
ag8
aa(lp5437
g576
ag3696
ag3467
aa(lp5438
g1450
ag3232
aa(lp5439
a(lp5440
a(lp5441
a(lp5442
a(lp5443
a(lp5444
g3696
aa(lp5445
g4102
aa(lp5446
g3696
aa(lp5447
g773
aa(lp5448
g3692
aa(lp5449
g3692
aa(lp5450
a(lp5451
g4080
aa(lp5452
g3696
aa(lp5453
a(lp5454
a(lp5455
g477
aa(lp5456
a(lp5457
g578
ag693
ag51
aa(lp5458
a(lp5459
a(lp5460
g583
aa(lp5461
g782
ag783
ag32
ag794
ag583
aa(lp5462
g46
aa(lp5463
g125
ag794
aa(lp5464
g583
ag674
ag466
ag50
ag51
aa(lp5465
g41
aa(lp5466
g583
aa(lp5467
g477
aa(lp5468
g49
ag100
ag46
aa(lp5469
g692
aa(lp5470
g583
aa(lp5471
a(lp5472
g37
aa(lp5473
a(lp5474
g98
aa(lp5475
a(lp5476
g519
aa(lp5477
g49
ag587
ag46
ag17
aa(lp5478
a(lp5479
a(lp5480
a(lp5481
g8
ag3
ag17
aa(lp5482
g10
aa(lp5483
a(lp5484
g8
aa(lp5485
a(lp5486
g8
ag477
aa(lp5487
g102
ag477
aa(lp5488
g17
aa(lp5489
a(lp5490
g8
ag583
aa(lp5491
g8
ag587
ag583
aa(lp5492
g583
aa(lp5493
g37
ag583
aa(lp5494
g583
aa(lp5495
g325
aa(lp5496
g587
ag583
ag46
ag53
ag17
aa(lp5497
a(lp5498
g583
aa(lp5499
a(lp5500
g332
ag583
ag6
aa(lp5501
g332
ag556
aa(lp5502
g583
ag693
ag51
aa(lp5503
g583
ag674
aa(lp5504
g46
aa(lp5505
a(lp5506
a(lp5507
g102
aa(lp5508
g583
aa(lp5509
a(lp5510
g583
aa(lp5511
g583
aa(lp5512
a(lp5513
g121
ag98
aa(lp5514
g16
ag37
ag583
ag6
aa(lp5515
g16
aa(lp5516
g10
ag13
aa(lp5517
g10
ag332
ag17
ag84
aa(lp5518
g121
ag8
ag1132
ag1450
ag93
ag53
ag17
ag6
aa(lp5519
g121
ag8
ag17
ag2024
ag84
ag6
aa(lp5520
g477
aa(lp5521
a(lp5522
a(lp5523
a(lp5524
a(lp5525
g332
ag17
aa(lp5526
g32
ag794
ag100
ag587
ag583
aa(lp5527
a(lp5528
g369
ag6
aa(lp5529
g778
ag8
aa(lp5530
a(lp5531
g49
ag37
ag583
aa(lp5532
g100
ag583
aa(lp5533
g583
aa(lp5534
a(lp5535
g8
aa(lp5536
g583
ag889
ag693
ag92
aS'option_c'
p5537
ag51
aa(lp5538
g37
ag583
aa(lp5539
g137
ag5537
ag41
aa(lp5540
g1132
ag889
ag466
ag311
ag5537
ag51
ag844
ag41
aa(lp5541
g1132
ag1043
ag5537
aa(lp5542
g121
ag693
ag5537
ag51
ag41
aa(lp5543
g1132
ag1043
aa(lp5544
g466
ag1043
ag5537
aa(lp5545
g1043
ag50
ag41
ag54
aa(lp5546
a(lp5547
a(lp5548
g41
aa(lp5549
g583
aa(lp5550
g49
aa(lp5551
g8
ag587
ag583
ag93
aa(lp5552
g8
aa(lp5553
g583
aa(lp5554
g8
ag100
ag583
aa(lp5555
a(lp5556
a(lp5557
a(lp5558
a(lp5559
a(lp5560
g8
ag37
ag640
ag583
ag692
aa(lp5561
g8
aa(lp5562
g100
ag477
ag5
aa(lp5563
a(lp5564
g583
aa(lp5565
a(lp5566
g477
aa(lp5567
a(lp5568
a(lp5569
g8
aa(lp5570
g32
aa(lp5571
a(lp5572
g583
aa(lp5573
g583
aa(lp5574
a(lp5575
g49
aa(lp5576
a(lp5577
g49
aa(lp5578
a(lp5579
g10
ag332
aa(lp5580
g10
aa(lp5581
g10
ag332
aa(lp5582
g587
aa(lp5583
g587
aa(lp5584
g477
ag587
aa(lp5585
g889
aa(lp5586
g466
ag5537
aa(lp5587
g583
ag889
ag92
ag51
ag1396
aa(lp5588
a(lp5589
g369
ag598
ag189
aa(lp5590
g10
aa(lp5591
g52
ag20
aa(lp5592
g46
ag1450
aa(lp5593
a(lp5594
g409
aa(lp5595
a(lp5596
g8
ag477
ag583
ag17
aa(lp5597
g10
ag710
ag477
ag46
aa(lp5598
g37
aa(lp5599
g8
aa(lp5600
g5
aa(lp5601
a(lp5602
g332
ag94
ag17
ag6
ag55
aa(lp5603
g587
ag715
ag46
aa(lp5604
g37
ag587
ag46
aa(lp5605
g121
ag8
aa(lp5606
g93
ag54
aa(lp5607
g32
aa(lp5608
a(lp5609
g37
ag583
ag674
ag773
aa(lp5610
g587
ag583
aa(lp5611
g587
ag583
ag46
aa(lp5612
g583
aa(lp5613
a(lp5614
g1867
ag121
ag102
aa(lp5615
g20
aa(lp5616
g332
ag8
ag6
aa(lp5617
g409
aa(lp5618
g49
ag93
aa(lp5619
g587
ag17
aa(lp5620
g16
aa(lp5621
g16
ag2250
ag121
ag8
ag53
ag98
aa(lp5622
g32
ag794
ag587
ag583
ag889
ag92
aa(lp5623
g49
ag706
aa(lp5624
g706
ag583
aa(lp5625
a(lp5626
g98
aa(lp5627
a(lp5628
g583
aa(lp5629
g32
aa(lp5630
a(lp5631
a(lp5632
g118
ag583
aa(lp5633
g37
aa(lp5634
g8
ag587
ag692
ag693
ag51
ag17
aa(lp5635
g477
aa(lp5636
a(lp5637
a(lp5638
g49
ag37
ag477
ag583
ag46
aa(lp5639
a(lp5640
a(lp5641
g692
aa(lp5642
g706
ag587
ag692
aa(lp5643
g10
ag316
ag715
ag692
aa(lp5644
g50
ag51
ag3
aa(lp5645
a(lp5646
g706
ag189
aa(lp5647
g848
ag118
ag121
aa(lp5648
g118
ag706
ag1111
ag121
aa(lp5649
g1111
ag587
ag692
aa(lp5650
a(lp5651
g477
aa(lp5652
g121
aa(lp5653
a(lp5654
g98
ag17
aa(lp5655
g692
aa(lp5656
a(lp5657
g121
ag102
ag692
aa(lp5658
g6
aa(lp5659
g706
ag715
aa(lp5660
g692
aa(lp5661
a(lp5662
a(lp5663
g5
aa(lp5664
a(lp5665
a(lp5666
a(lp5667
a(lp5668
a(lp5669
g715
ag692
ag693
ag51
aa(lp5670
g121
ag8
ag692
ag17
aa(lp5671
g692
ag6
aa(lp5672
g692
aa(lp5673
g692
ag51
aa(lp5674
g466
ag734
ag844
aa(lp5675
a(lp5676
g8
ag125
aa(lp5677
g23
aa(lp5678
g692
aa(lp5679
a(lp5680
a(lp5681
a(lp5682
a(lp5683
g8
ag692
aa(lp5684
a(lp5685
a(lp5686
g8
ag715
aa(lp5687
g706
ag715
aa(lp5688
g10
ag8
ag715
ag17
aa(lp5689
g916
ag121
ag715
ag46
aa(lp5690
g710
ag8
ag562
aa(lp5691
g715
ag692
aa(lp5692
g118
ag706
ag121
ag715
ag466
ag84
aa(lp5693
g84
aa(lp5694
a(lp5695
g332
ag49
ag373
ag8
ag37
ag6
aa(lp5696
a(lp5697
g332
aa(lp5698
a(lp5699
g16
ag10
aa(lp5700
a(lp5701
g8
ag272
ag17
aa(lp5702
g8
ag1029
ag17
ag6
aa(lp5703
g692
ag17
ag6
aa(lp5704
g706
ag562
ag84
ag6
aa(lp5705
g8
ag6
aa(lp5706
g373
ag6
aa(lp5707
a(lp5708
g798
aa(lp5709
g715
ag6
ag20
aa(lp5710
g10
ag6
aa(lp5711
g715
aa(lp5712
a(lp5713
a(lp5714
g715
aa(lp5715
g13
ag798
aa(lp5716
g578
ag8
aa(lp5717
g125
ag794
ag189
aa(lp5718
a(lp5719
g10
aa(lp5720
a(lp5721
g1029
ag17
ag6
aa(lp5722
g10
ag137
ag17
ag6
aa(lp5723
a(lp5724
g6
aa(lp5725
a(lp5726
a(lp5727
g692
aa(lp5728
g8
ag50
ag51
ag17
aa(lp5729
a(lp5730
a(lp5731
g1029
ag6
aa(lp5732
a(lp5733
g121
ag137
ag311
aa(lp5734
g121
ag311
aa(lp5735
g8
ag100
ag93
ag53
ag94
ag84
aa(lp5736
g16
ag10
ag13
aa(lp5737
g16
ag6
aa(lp5738
g706
aa(lp5739
g692
ag1029
ag17
ag6
aa(lp5740
a(lp5741
a(lp5742
g10
ag715
ag6
aa(lp5743
g793
ag50
ag51
aa(lp5744
g23
ag799
aa(lp5745
a(lp5746
g799
ag33
aa(lp5747
a(lp5748
g692
ag693
ag50
ag51
ag41
ag519
aa(lp5749
g793
ag125
ag17
aa(lp5750
a(lp5751
g102
aa(lp5752
g16
ag10
ag6
aa(lp5753
g562
ag1029
ag17
ag84
ag6
aa(lp5754
g868
aa(lp5755
g13
ag17
aa(lp5756
g706
ag8
aa(lp5757
g8
aa(lp5758
a(lp5759
a(lp5760
a(lp5761
g125
aa(lp5762
g6
aa(lp5763
g1029
ag84
ag6
aa(lp5764
a(lp5765
g1029
aa(lp5766
a(lp5767
a(lp5768
a(lp5769
a(lp5770
a(lp5771
a(lp5772
g10
ag13
aa(lp5773
g715
aa(lp5774
a(lp5775
g84
aa(lp5776
a(lp5777
a(lp5778
g692
aa(lp5779
a(lp5780
g121
ag692
ag6
aa(lp5781
a(lp5782
a(lp5783
g8
ag17
ag6
aa(lp5784
g1867
ag454
ag8
aa(lp5785
g706
ag8
ag93
aa(lp5786
g16
ag13
ag121
ag84
aa(lp5787
g316
aa(lp5788
g8
ag3
ag93
ag53
ag94
ag17
aa(lp5789
g49
ag8
aa(lp5790
g8
ag793
ag693
ag51
ag17
aa(lp5791
g715
aa(lp5792
g16
ag17
aa(lp5793
g692
aa(lp5794
a(lp5795
a(lp5796
g49
aa(lp5797
g848
ag916
ag121
ag98
ag84
aa(lp5798
g49
ag916
aa(lp5799
g509
ag1138
aa(lp5800
g137
aa(lp5801
g46
ag53
ag98
aa(lp5802
g260
ag710
ag715
ag53
ag20
aa(lp5803
a(lp5804
g692
aa(lp5805
g692
aa(lp5806
g710
ag715
ag325
ag20
aa(lp5807
g189
ag17
ag6
aa(lp5808
g332
ag325
ag6
aa(lp5809
g102
aa(lp5810
a(lp5811
a(lp5812
g706
ag715
ag692
ag6
ag1826
aa(lp5813
g316
ag118
ag121
ag715
ag692
ag369
ag17
ag6
ag320
aa(lp5814
g10
ag706
ag587
ag6
aa(lp5815
g8
ag715
aa(lp5816
g697
aa(lp5817
a(lp5818
a(lp5819
g37
ag53
aa(lp5820
g10
ag1867
ag121
aa(lp5821
g16
ag8
ag715
aa(lp5822
g715
ag692
aa.