(lp0
(lp1
S'sustainable_development'
p2
aS'biodiversity'
p3
aS'flexibility'
p4
aS'desertification'
p5
aS'fund'
p6
aS'financial_resources'
p7
aS'montreal_protocol'
p8
aS'technology'
p9
aS'global_environment_facility'
p10
aS'forest'
p11
aS'development'
p12
aa(lp13
g2
ag3
ag5
ag6
aS'women'
p14
ag9
ag12
aa(lp15
g2
ag3
ag5
ag6
aS'know-how'
p16
ag9
ag12
aa(lp17
g2
aS'afforestation'
p18
aS'food'
p19
aS'water'
p20
aS'forest_management'
p21
aS'poverty'
p22
ag3
ag5
aS'energy'
p23
ag6
aS'indigenous_peoples'
p24
ag14
aS'education'
p25
ag9
ag11
ag12
aa(lp26
g2
ag4
ag5
ag6
ag9
ag12
aa(lp27
g2
ag18
ag19
aS'investment'
p28
aS'private_sector'
p29
ag20
ag21
ag22
ag3
ag5
ag6
ag16
ag14
ag7
aS'technology_transfer'
p30
ag25
ag9
ag10
aS'forestry'
p31
ag11
ag12
aS'financial_mechanism'
p32
aS'land_use'
p33
aa(lp34
g2
ag19
aS'gender'
p35
aS'nuclear'
p36
aS'transportation'
p37
ag20
ag22
ag3
ag4
ag5
ag6
ag14
ag7
ag30
aS'international_cooperation'
p38
ag25
ag9
ag10
aS'shared_vision'
p39
ag11
ag12
aa(lp40
g19
aS'agriculture'
p41
ag36
ag3
ag4
ag5
ag6
ag30
ag9
ag12
aa(lp42
g2
ag36
aS'health'
p43
aS'business'
p44
ag22
ag3
ag5
ag6
ag7
aS'vulnerable'
p45
ag30
ag38
ag25
ag9
ag12
aa(lp46
g36
ag5
ag6
ag9
ag12
aa(lp47
g36
aS'uncertainty'
p48
ag5
ag6
ag14
ag9
aS'research_and_development'
p49
ag12
aa(lp50
g35
ag36
ag43
ag6
ag9
ag10
ag12
aa(lp51
g19
ag35
ag36
ag20
ag22
ag5
ag23
ag6
ag14
ag9
ag10
ag11
ag12
aa(lp52
g2
ag19
ag36
ag20
ag22
aS'enabling_environment'
p53
ag5
ag6
ag14
ag7
aS'south-south'
p54
ag8
ag30
ag38
ag9
ag10
ag12
ag33
aa(lp55
g2
ag36
ag20
ag22
ag3
ag5
ag6
ag7
ag54
ag30
ag25
ag9
ag11
ag12
aa(lp56
g2
ag19
ag35
ag36
ag29
ag5
ag6
ag14
ag54
ag9
ag12
ag33
aa(lp57
g2
ag19
ag35
ag41
ag36
ag43
ag44
ag20
ag22
ag3
ag48
ag53
ag5
ag6
ag14
ag7
ag54
ag30
ag38
ag25
ag9
ag10
ag12
aa(lp58
g19
ag35
ag41
ag28
ag3
ag5
ag6
ag14
ag30
ag25
ag9
ag10
ag11
ag12
aa(lp59
g2
ag35
ag20
ag3
ag5
ag6
ag14
ag9
ag10
ag11
ag12
aa(lp60
g35
ag29
ag3
ag5
ag6
ag14
ag7
ag25
ag9
ag10
ag11
ag12
aa(lp61
g35
ag20
ag22
ag5
ag23
ag6
ag14
ag25
ag9
ag10
ag11
ag12
aa(lp62
g35
aS'innovation'
p63
ag20
ag5
ag6
ag16
ag14
ag9
ag10
ag11
ag12
aa(lp64
g35
ag44
ag5
ag6
ag14
ag9
ag10
aS'baseline'
p65
ag11
ag12
aa(lp66
S'least_developed_countries'
p67
ag2
ag29
ag43
ag44
ag20
ag22
ag3
ag5
aS'clean_development_mechanism'
p68
ag6
ag7
ag25
ag10
ag11
ag12
aa(lp69
g2
ag22
ag3
ag5
ag23
ag6
ag14
ag54
ag30
ag38
ag9
ag10
ag31
ag11
ag12
aa(lp70
S'reforestation'
p71
ag20
ag22
ag5
ag23
ag6
ag14
ag7
ag38
ag25
ag9
ag10
ag11
ag12
aa(lp72
g2
ag29
ag53
ag5
ag14
ag9
ag11
ag12
aa(lp73
g2
ag35
ag41
ag29
ag43
ag44
ag20
ag22
aS'intellectual_property_rights'
p74
ag3
ag53
ag5
ag23
ag6
ag14
ag7
ag30
ag38
ag25
ag9
ag10
ag65
ag31
ag11
ag12
aa(lp75
g2
ag19
ag71
ag44
ag20
ag22
ag5
ag23
ag6
ag16
ag7
ag45
ag30
ag38
ag25
ag9
ag10
ag12
ag32
aa(lp76
g2
ag18
ag20
ag5
ag6
ag14
ag7
ag25
ag9
ag12
ag32
aa(lp77
g2
ag5
ag6
ag38
ag9
ag12
aa(lp78
g2
ag19
ag71
ag20
ag3
aS'stabilization'
p79
ag5
ag23
ag6
ag54
ag45
ag30
ag31
ag11
ag12
ag33
aa(lp80
g67
ag2
ag5
ag6
ag12
aa(lp81
g2
aS'ozone'
p82
ag71
ag44
ag3
ag5
ag6
ag7
ag25
ag9
ag31
ag11
ag12
aa(lp83
g2
ag5
ag6
ag9
ag12
aa(lp84
g2
ag19
ag41
ag71
ag20
ag22
ag3
ag79
ag5
ag23
ag6
ag14
ag7
ag54
ag45
ag30
ag25
ag9
ag10
ag31
ag11
ag12
ag33
aa(lp85
g2
ag41
ag22
ag5
ag23
ag6
ag7
ag30
ag9
ag12
aa(lp86
g67
ag2
ag41
ag29
ag22
ag5
ag6
ag25
ag12
ag32
ag33
aa(lp87
g2
ag41
ag22
ag5
ag6
ag9
ag10
ag12
aa(lp88
g2
ag41
ag43
ag71
ag20
ag22
ag3
ag5
ag6
ag25
ag9
ag11
ag12
aa(lp89
g2
ag41
ag79
ag5
ag6
ag7
ag9
ag10
ag12
ag33
aa(lp90
g67
ag2
ag41
ag4
ag5
ag6
ag9
ag12
ag32
aa(lp91
g67
ag2
ag41
ag3
ag5
ag6
ag7
ag9
ag10
ag31
ag12
aa(lp92
g2
ag41
ag5
ag6
ag24
ag14
ag9
ag12
aa(lp93
g2
ag41
ag5
ag6
ag9
ag12
aa(lp94
g67
ag2
ag41
ag22
ag3
ag4
ag5
ag6
ag14
ag7
ag30
ag25
ag9
ag10
ag12
ag32
ag33
aa(lp95
g2
ag18
ag71
aS'renewable_energy'
p96
ag44
ag20
ag22
ag5
ag6
ag14
ag7
ag45
ag30
ag25
ag9
ag12
ag32
aa(lp97
g2
ag44
ag22
ag5
ag6
ag30
ag12
aa(lp98
g2
ag20
ag22
ag5
ag23
ag6
ag30
ag9
ag10
ag12
aa(lp99
g2
ag19
ag35
aS'ecosystem'
p100
ag41
ag29
ag96
ag20
ag4
ag5
ag23
ag6
ag14
ag7
ag30
ag9
ag11
ag12
aa(lp101
g2
ag19
ag100
ag20
ag5
ag23
ag6
ag14
ag7
ag11
ag12
aS'fuels'
p102
ag33
aa(lp103
g67
ag2
ag5
ag14
ag7
ag9
ag10
ag12
aa(lp104
g2
ag48
ag5
ag6
ag16
ag8
ag9
ag12
aS'models'
p105
aa(lp106
g2
ag20
ag3
ag5
ag6
ag9
ag49
ag12
aa(lp107
g2
ag29
ag5
ag6
ag9
ag12
aa(lp108
g67
ag2
ag35
ag5
ag6
ag9
ag12
aa(lp109
g67
ag2
ag19
ag35
ag100
ag29
ag96
ag20
ag22
ag3
ag48
ag5
ag23
ag6
ag14
ag7
ag30
ag9
ag10
ag11
ag12
ag102
ag105
aa(lp110
g2
ag19
ag41
ag36
ag20
ag22
ag5
ag23
ag6
ag14
ag30
ag9
ag31
ag12
aa(lp111
g2
ag41
ag36
ag4
ag5
ag6
ag14
ag9
ag12
aa(lp112
g2
ag41
ag36
ag29
ag5
ag6
ag14
ag9
ag12
aa(lp113
g2
ag19
ag35
ag41
ag36
ag43
ag5
ag23
ag6
ag14
ag25
ag9
ag12
aa(lp114
g2
ag35
ag41
ag36
ag5
ag6
ag7
ag9
ag12
aa(lp115
g2
ag41
ag36
ag44
ag4
ag5
ag6
ag7
ag9
ag12
aa(lp116
g2
ag19
ag41
ag36
ag3
ag5
ag6
ag54
ag9
ag31
ag11
ag12
ag33
aa(lp117
g2
ag19
ag41
ag36
ag71
ag22
ag5
ag23
ag6
ag14
ag7
ag9
ag12
ag33
aa(lp118
g67
ag2
ag19
ag35
ag41
ag36
ag29
ag43
ag71
ag22
ag3
ag53
ag4
ag5
ag23
ag6
ag14
ag7
ag54
ag30
ag25
ag9
ag10
ag31
ag49
ag12
aa(lp119
g2
ag20
ag22
ag4
ag5
ag6
ag30
ag9
ag10
ag11
ag12
aa(lp120
g2
ag19
ag28
ag20
ag22
ag3
ag5
ag6
ag7
ag30
ag9
ag12
ag32
ag33
aa(lp121
g2
ag29
ag4
ag5
ag6
ag7
ag9
ag12
aa(lp122
g2
ag5
ag6
ag16
ag7
ag9
ag12
aa(lp123
g2
ag44
ag20
ag22
aS'industry'
p124
ag5
ag6
ag7
ag30
ag38
ag25
ag9
ag12
aa(lp125
g2
ag41
ag28
ag29
ag43
ag63
ag44
ag20
ag124
ag6
ag14
ag7
ag30
ag25
ag9
ag39
ag12
ag32
aa(lp126
g2
ag28
aS'co2'
p127
ag29
ag43
ag44
ag22
ag124
ag4
ag23
ag6
ag16
aS'emissions'
p128
ag25
ag9
ag31
ag12
aa(lp129
g2
ag100
aS'kyoto_protocol'
p130
ag28
ag29
ag43
ag20
ag74
ag124
ag23
ag68
aS'enforcement'
p131
ag6
ag16
ag14
ag30
ag25
ag9
ag12
aa(lp132
S'small_island'
p133
ag2
ag19
ag35
ag100
ag130
ag41
ag28
ag96
ag44
ag20
ag124
aS'gases'
p134
ag6
ag54
ag30
ag38
ag25
ag9
ag11
ag49
ag12
ag32
aS'ocean'
p135
aa(lp136
g133
ag2
ag100
ag43
ag63
ag44
ag20
ag3
ag124
ag6
ag16
ag14
ag7
ag54
ag25
ag9
ag39
ag11
ag12
aa(lp137
S'policies_and_measures'
p138
ag2
ag35
ag100
ag130
ag41
ag28
ag29
ag43
ag63
ag44
ag20
ag22
ag3
ag124
ag53
ag5
ag23
ag131
ag6
ag7
ag38
ag25
ag9
ag10
ag11
ag12
aa(lp139
g2
ag35
ag29
ag43
ag63
ag44
ag20
ag124
ag6
ag16
ag14
ag7
ag30
ag25
ag9
ag10
ag11
ag49
ag12
ag32
ag33
aa(lp140
g2
ag35
ag130
ag41
ag28
ag29
ag20
ag22
ag124
ag53
ag23
ag6
ag14
ag30
ag25
ag9
ag11
ag12
ag32
aa(lp141
g2
ag130
ag29
ag43
ag20
ag22
ag124
ag53
ag23
ag131
ag6
ag16
ag7
ag54
ag30
ag25
ag9
ag11
ag12
aa(lp142
g133
ag67
ag2
ag19
ag35
ag100
ag130
ag41
ag28
ag29
ag43
ag63
ag44
ag20
ag22
ag74
ag3
ag124
ag53
ag4
ag5
ag23
ag131
ag6
ag14
ag7
ag45
ag8
ag30
ag38
ag25
ag9
ag10
ag39
ag31
ag11
ag49
ag12
ag105
ag32
aa(lp143
g2
ag130
ag44
ag20
ag22
ag124
ag38
ag25
ag9
ag10
ag11
ag12
aa(lp144
g2
ag28
aS'transport'
p145
ag29
ag43
ag22
ag124
aS'fossil_fuels'
p146
ag23
ag131
ag14
ag30
ag25
ag9
ag10
ag11
ag12
ag102
aa(lp147
g2
ag28
ag37
ag44
ag22
ag124
ag131
ag25
ag9
ag11
ag12
aa(lp148
g2
aS'differentiated_responsibilities'
p149
aS'economies_in_transition'
p150
ag44
ag22
ag124
ag23
ag14
ag7
ag30
ag25
ag9
ag11
ag12
aa(lp151
g2
ag28
ag29
ag63
ag20
ag22
ag124
ag23
ag6
ag24
ag25
ag9
ag11
ag12
aa(lp152
g2
ag149
ag29
ag124
ag146
ag23
ag25
ag11
ag12
aa(lp153
g133
ag2
ag19
ag22
ag3
ag134
ag6
ag7
aS'domestic_action'
p154
ag38
ag9
ag10
ag11
ag12
ag135
aa(lp155
g2
ag28
ag29
ag44
ag20
ag3
ag53
ag23
ag6
ag45
ag30
ag25
ag65
ag11
ag12
aa(lp156
g2
ag149
ag100
ag43
ag22
ag3
ag134
ag131
ag154
ag38
ag10
ag11
ag12
ag135
aa(lp157
g2
ag35
ag28
ag29
ag43
ag96
ag20
ag53
ag5
ag134
ag23
ag30
ag38
ag25
ag9
ag10
ag11
ag12
ag135
aa(lp158
g133
ag2
ag149
ag35
ag100
ag130
ag150
ag41
ag28
ag145
ag29
ag43
ag63
ag96
ag37
ag44
ag20
ag22
ag3
ag124
ag53
ag5
ag134
ag146
ag23
ag131
ag6
ag14
ag7
ag128
ag45
ag30
ag38
ag25
ag9
ag10
ag65
ag11
ag12
ag102
ag135
aa(lp159
g2
ag130
ag44
ag20
ag22
ag124
ag23
ag30
ag38
ag25
ag9
ag10
ag11
ag12
aa(lp160
g2
ag43
ag22
ag124
ag23
ag14
ag10
ag65
ag11
ag12
aa(lp161
g2
ag35
ag28
ag43
ag37
ag20
ag124
aS'market_mechanisms'
p162
ag131
ag24
ag14
ag25
ag10
ag11
ag12
ag105
aa(lp163
g2
ag19
ag28
ag145
ag43
ag20
ag22
ag3
ag124
ag131
ag6
ag38
ag25
ag9
ag10
ag11
ag12
aa(lp164
g2
ag28
ag22
ag3
ag124
ag146
ag7
ag10
ag11
ag12
ag135
aa(lp165
g133
ag67
ag2
ag28
ag29
ag96
ag44
ag22
ag3
ag124
ag23
ag68
aS'energy_efficiency'
p166
ag6
ag7
ag45
ag30
ag25
ag9
ag10
ag11
ag12
aa(lp167
g2
ag22
ag124
ag23
ag131
ag6
ag14
ag9
ag10
ag11
ag12
ag135
aa(lp168
g2
ag149
ag124
ag23
ag6
ag14
ag128
ag38
ag10
ag11
ag12
ag135
aa(lp169
g2
ag149
ag44
ag20
ag22
ag124
ag23
ag131
ag25
ag10
ag11
ag12
aa(lp170
g2
ag100
ag43
ag124
ag23
ag131
ag25
ag10
ag11
ag12
ag102
aa(lp171
g133
ag67
ag138
ag2
ag149
ag100
ag41
ag28
ag145
ag43
ag63
ag96
ag44
ag20
ag22
ag124
ag53
ag162
ag5
ag23
ag131
ag6
ag24
ag16
ag14
ag7
ag45
ag30
ag38
ag25
ag9
ag10
ag65
ag11
ag12
ag102
ag105
ag33
ag135
aa(lp172
g2
ag19
ag82
ag100
ag41
ag29
ag43
ag44
ag20
ag21
ag22
ag3
ag124
ag48
ag79
ag4
ag5
ag146
ag23
ag131
ag6
ag14
ag7
ag45
ag8
ag30
ag38
ag25
ag9
ag10
ag31
ag11
ag12
ag33
aa(lp173
a(lp174
g67
ag2
ag19
ag149
ag82
ag41
ag28
ag145
ag127
ag29
ag43
ag71
ag37
ag44
ag20
ag22
ag74
ag3
ag124
ag53
ag5
ag23
ag6
ag16
ag14
ag7
ag54
ag128
ag8
ag30
ag38
ag25
ag9
ag10
ag11
ag12
ag105
ag32
ag33
aa(lp175
g2
ag41
ag28
ag145
ag127
ag43
ag44
ag3
ag5
aS'emissions_trading'
p176
ag7
ag54
ag30
ag38
ag9
ag11
ag12
ag33
aa(lp177
g2
ag19
ag28
ag145
ag29
ag63
ag37
ag44
ag22
ag79
ag5
ag23
ag6
ag14
ag7
ag30
ag25
ag12
ag102
aa(lp178
g2
ag18
ag19
ag41
ag28
ag145
ag29
ag20
ag22
ag3
ag124
ag5
ag23
ag6
ag14
ag7
ag30
ag38
ag25
ag31
ag11
ag12
ag33
aa(lp179
g2
ag19
ag35
ag82
ag41
ag43
ag44
ag20
ag22
ag3
ag124
ag5
ag134
ag6
ag14
ag30
ag38
ag25
ag9
ag31
ag11
ag12
ag105
aa(lp180
g2
ag29
ag22
ag3
ag124
aS'observing_systems'
p181
ag6
ag14
ag30
ag38
ag25
ag9
ag31
ag49
ag12
aa(lp182
g2
ag19
ag41
ag28
ag145
ag43
ag20
ag22
ag74
ag3
ag124
ag79
ag5
ag23
ag14
ag7
ag38
ag25
ag31
ag11
ag12
ag102
aa(lp183
g2
ag18
ag82
ag100
ag41
ag43
ag71
ag63
ag20
ag22
ag74
ag3
ag124
ag23
ag131
ag6
ag16
ag7
ag9
ag11
ag49
ag12
ag33
aa(lp184
g2
ag41
ag28
ag127
ag29
ag96
ag20
ag22
ag74
ag3
ag5
ag23
ag6
ag16
ag7
ag30
ag9
ag10
ag11
ag12
ag33
aa(lp185
g2
ag29
ag43
ag44
ag22
ag74
ag3
ag5
ag16
ag14
ag7
ag54
ag30
ag38
ag25
ag9
ag11
ag12
aa(lp186
g2
ag41
ag145
ag127
ag29
ag43
ag20
ag22
ag3
ag5
ag146
ag6
ag16
ag7
ag128
ag30
ag38
ag25
ag9
ag10
ag31
ag11
ag12
aa(lp187
g67
ag2
ag19
ag149
ag41
ag28
ag29
ag44
ag22
ag74
ag3
ag124
ag23
ag6
ag7
ag30
ag38
ag9
ag10
ag31
ag12
aa(lp188
g2
ag82
ag41
ag28
ag145
ag43
ag44
ag22
ag3
ag124
ag5
ag23
ag6
ag14
ag7
ag38
ag25
ag9
ag31
ag11
ag12
aa(lp189
g2
ag35
ag41
ag145
ag36
ag71
ag44
ag21
ag3
ag124
ag5
ag23
ag6
ag30
ag9
ag10
ag11
ag12
ag105
aa(lp190
g2
ag18
ag19
ag149
ag35
ag82
ag41
ag28
ag145
ag127
ag36
ag29
ag43
ag71
ag37
ag44
ag20
ag21
ag22
ag74
ag3
ag124
ag181
ag5
ag23
ag6
ag24
ag16
ag14
ag7
ag54
ag30
ag38
ag25
ag9
ag10
ag31
ag11
ag49
ag12
ag102
ag105
ag33
aa(lp191
S'cooperative_action'
p192
ag2
ag18
ag41
ag145
ag127
ag36
ag29
ag43
ag71
ag20
ag22
ag3
ag124
ag5
ag23
ag6
ag7
ag54
ag30
ag38
ag25
ag9
ag10
ag31
ag11
ag12
ag32
aa(lp193
g2
ag18
ag149
ag82
ag41
ag28
ag145
ag36
ag29
ag43
ag71
ag96
ag37
ag44
ag20
ag22
ag3
ag124
ag5
ag134
ag23
ag166
ag6
ag7
ag128
ag8
ag30
ag38
ag25
ag9
ag10
aS'berlin_mandate'
p194
ag31
ag11
ag49
ag12
ag102
ag33
ag135
aa(lp195
g67
ag138
ag2
ag149
ag28
ag145
ag127
ag29
ag96
ag37
ag44
ag20
ag22
ag74
ag124
ag5
ag146
ag176
ag23
ag6
ag7
ag128
ag30
ag38
ag25
ag9
ag10
ag12
ag102
aa(lp196
g2
ag82
ag41
ag36
ag29
ag43
ag22
ag124
ag5
ag6
ag7
ag30
ag38
ag25
ag9
ag11
ag12
aa(lp197
g2
ag18
ag36
ag43
ag71
ag20
ag21
ag22
ag6
ag14
ag30
ag25
ag9
ag11
ag12
aa(lp198
g2
ag19
ag36
ag29
ag43
ag22
ag162
ag6
ag14
ag7
ag30
ag38
ag25
ag9
ag12
aa(lp199
g2
ag28
ag145
ag36
ag29
ag37
ag23
ag166
ag6
ag7
ag30
ag25
ag9
ag12
aa(lp200
g2
ag145
ag36
ag29
ag43
ag37
ag48
ag5
ag23
ag166
ag6
ag128
ag8
ag30
ag38
ag25
ag9
ag12
ag102
ag135
aa(lp201
g2
ag35
ag28
ag145
ag36
ag29
ag44
ag22
ag74
ag3
ag124
ag53
ag23
ag6
ag7
ag54
ag30
ag9
ag12
ag135
aa(lp202
g67
ag2
ag149
ag82
ag41
ag28
ag145
ag36
ag44
ag20
ag74
ag3
ag124
ag23
ag6
ag7
ag45
ag8
ag25
ag9
ag10
ag31
ag11
ag12
ag105
aa(lp203
g2
ag149
ag82
ag28
ag145
ag36
ag29
ag96
ag74
ag23
ag6
ag8
ag30
ag38
ag25
ag9
ag10
ag194
ag12
ag102
ag33
aa(lp204
g2
ag41
ag36
ag29
ag22
ag48
ag23
ag166
ag6
ag7
ag128
ag30
ag38
ag25
ag9
ag10
ag31
ag11
ag12
aa(lp205
g2
ag19
ag35
ag28
ag36
ag29
ag43
ag37
ag20
ag22
ag3
ag162
ag23
ag166
ag6
ag7
ag38
ag25
ag9
ag12
aa(lp206
g138
ag2
ag19
ag149
ag35
ag82
ag41
ag28
ag145
ag36
ag29
ag43
ag63
ag96
ag37
ag44
ag20
ag22
ag74
ag3
ag124
ag48
ag53
ag79
ag5
ag134
ag23
ag166
ag6
ag14
ag7
ag128
ag45
ag8
ag30
ag38
ag25
ag9
ag10
ag31
ag11
ag12
ag105
ag135
aa(lp207
g2
ag41
ag28
ag145
ag29
ag43
ag20
ag22
ag5
ag23
ag6
ag38
ag12
aa(lp208
g2
ag149
ag41
ag28
ag145
ag127
ag36
ag29
ag37
ag44
ag22
ag5
ag23
ag166
ag6
ag128
ag30
ag9
ag10
ag194
ag31
ag11
ag12
ag135
aa(lp209
g2
ag19
ag149
ag41
ag28
ag29
ag43
ag22
ag23
ag6
ag14
ag7
ag8
ag30
ag25
ag9
ag10
ag11
ag12
aa(lp210
g67
ag2
ag35
ag28
ag145
ag29
ag43
ag22
ag53
ag23
ag6
ag14
ag7
ag54
ag30
ag25
ag9
ag10
ag49
ag12
aa(lp211
g2
ag41
ag28
ag145
ag127
ag29
ag96
ag37
ag44
ag20
ag22
ag5
ag23
ag6
ag24
ag128
ag30
ag25
ag9
ag10
ag65
ag11
ag12
ag102
ag33
aa(lp212
g2
ag41
ag28
ag145
ag37
ag44
ag22
ag124
ag5
ag23
ag6
ag45
ag30
ag25
ag10
ag12
aa(lp213
g2
ag19
ag41
ag28
ag145
ag43
ag96
ag20
ag22
ag3
ag146
ag23
ag6
ag14
ag7
ag54
ag128
ag30
ag38
ag25
ag9
ag10
ag11
ag12
aa(lp214
g2
ag149
ag41
ag28
ag145
ag43
ag37
ag20
ag22
ag3
ag5
ag23
ag6
ag7
ag30
ag38
ag25
ag9
ag12
aa(lp215
g2
ag149
ag35
ag41
ag28
ag145
ag29
ag43
ag22
ag124
ag5
ag23
ag166
ag6
ag24
ag14
ag7
ag54
ag25
ag9
ag10
ag31
ag12
ag102
aa(lp216
g133
ag2
ag19
ag35
ag82
ag41
ag28
ag145
ag36
ag29
ag43
ag96
ag20
ag22
ag3
ag134
ag146
ag23
ag131
ag166
ag6
ag16
ag14
ag7
ag128
ag8
ag30
ag38
ag25
ag9
ag12
ag32
aa(lp217
g133
ag67
ag138
ag2
ag19
ag149
ag35
ag82
ag41
ag28
ag145
ag127
ag36
ag29
ag43
ag63
ag96
ag37
ag44
ag20
ag22
ag3
ag124
ag53
ag5
ag146
ag23
ag131
ag166
ag6
ag24
ag16
ag14
ag7
ag54
ag128
ag8
ag30
ag38
ag25
ag9
ag10
ag194
ag31
ag11
ag49
ag12
ag102
ag105
ag32
aa(lp218
g2
ag19
ag41
ag28
ag145
ag29
ag43
ag44
ag20
ag22
ag124
ag5
ag23
ag6
ag14
ag7
ag38
ag25
ag9
ag194
ag11
ag12
aa(lp219
g67
ag2
ag82
ag28
ag36
ag29
ag43
ag37
ag44
ag20
ag22
ag3
ag4
ag5
ag146
ag23
ag6
ag128
ag30
ag9
ag10
ag11
ag12
ag135
aa(lp220
g133
ag2
ag19
ag149
ag29
ag96
ag44
ag20
ag22
ag53
ag5
ag146
ag23
ag166
ag6
ag24
ag128
ag30
ag25
ag9
ag10
ag11
ag12
ag102
aa(lp221
g138
ag2
ag35
ag28
ag145
ag29
ag96
ag44
ag20
ag21
ag22
ag3
ag162
ag5
ag23
ag6
ag14
ag7
ag30
ag25
ag9
ag31
ag11
ag12
ag32
aa(lp222
g67
ag2
ag35
ag28
ag145
ag96
ag37
ag20
ag22
ag3
ag5
ag23
ag6
ag14
ag128
ag30
ag38
ag25
ag9
ag11
ag49
ag12
ag32
aa(lp223
g2
ag19
ag41
ag145
ag36
ag43
ag96
ag44
ag20
ag22
ag146
ag23
ag131
ag6
ag14
ag45
ag30
ag25
ag9
ag11
ag12
ag102
aa(lp224
g67
ag2
ag19
ag41
ag28
ag145
ag29
ag43
ag44
ag22
ag74
ag3
ag124
ag5
ag6
ag24
ag14
ag7
ag54
ag30
ag25
ag9
ag10
ag11
ag12
ag105
aa(lp225
g2
ag19
ag149
ag41
ag28
ag145
ag29
ag43
ag44
ag20
ag22
ag124
ag6
ag14
ag7
ag128
ag30
ag25
ag10
ag11
ag12
ag32
aa(lp226
g2
ag149
ag35
ag41
ag28
ag145
ag44
ag20
ag124
ag23
ag6
ag14
ag30
ag25
ag11
ag12
aa(lp227
g67
ag2
ag149
ag28
ag44
ag20
ag22
ag53
ag23
ag6
ag14
ag7
ag30
ag38
ag11
ag12
aa(lp228
g67
ag2
ag19
ag28
ag145
ag36
ag43
ag22
ag3
ag53
ag4
ag146
ag23
ag6
ag14
ag30
ag38
ag25
ag9
ag10
ag31
ag11
ag12
ag135
aa(lp229
g133
ag67
ag2
ag82
ag41
ag145
ag36
ag96
ag37
ag22
ag124
ag48
ag4
ag5
ag166
ag6
ag14
ag7
ag128
ag8
ag30
ag38
ag9
ag10
ag194
ag31
ag11
ag12
ag102
aa(lp230
g138
ag2
ag28
ag29
ag43
ag44
ag20
ag53
ag79
ag5
ag23
ag6
ag14
ag7
ag54
ag30
ag9
ag10
ag12
aa(lp231
g133
ag67
ag138
ag2
ag19
ag149
ag82
ag41
ag28
ag145
ag36
ag29
ag43
ag63
ag96
ag37
ag44
ag20
ag22
ag74
ag3
ag124
ag53
ag4
ag5
ag146
ag23
ag166
ag6
ag24
ag14
ag7
ag54
ag128
ag45
ag8
ag30
ag38
ag25
ag9
ag10
ag65
ag194
ag31
ag11
ag49
ag12
ag102
ag32
ag33
aa(lp232
g2
ag149
ag145
ag36
ag43
ag20
ag22
ag5
ag146
ag23
ag6
ag14
ag30
ag9
ag194
ag11
ag12
ag102
ag32
aa(lp233
g2
ag35
ag28
ag36
ag29
ag71
ag20
ag3
ag4
ag5
ag6
ag14
ag7
ag128
ag30
ag9
ag10
ag31
ag11
ag12
ag102
ag32
aa(lp234
g2
ag149
ag28
ag36
ag29
ag44
ag22
ag5
ag23
ag6
ag14
ag7
ag38
ag11
ag12
aa(lp235
g133
ag2
ag28
ag36
ag43
ag96
ag20
ag22
ag5
ag23
ag6
ag7
ag30
ag38
ag11
ag12
ag102
aa(lp236
g138
ag2
ag35
ag36
ag44
ag53
ag4
ag23
ag6
ag7
ag128
ag38
ag9
ag11
ag12
ag102
aa(lp237
g133
ag67
ag138
ag2
ag19
ag149
ag35
ag100
ag41
ag28
ag145
ag36
ag29
ag43
ag96
ag37
ag44
ag20
ag21
ag22
ag3
ag124
ag53
ag79
ag4
ag5
ag134
ag146
ag23
ag6
ag14
ag7
ag54
ag128
ag8
ag30
ag38
ag25
ag9
ag10
ag194
ag31
ag11
ag49
ag12
ag102
ag32
ag33
ag135
aa(lp238
g2
ag41
ag28
ag145
ag44
ag20
ag22
ag124
ag53
ag23
ag6
ag7
ag30
ag38
ag25
ag9
ag11
ag12
aa(lp239
g2
ag19
ag41
ag28
ag145
ag29
ag20
ag22
ag3
ag124
ag162
ag23
ag6
ag16
ag14
ag7
ag30
ag38
ag9
ag12
aa(lp240
g2
ag19
ag35
ag41
ag28
ag29
ag43
ag44
ag20
ag3
ag124
ag53
ag6
ag14
ag30
ag38
ag25
ag9
ag10
ag49
ag12
ag105
ag32
aa(lp241
g2
ag100
ag43
ag20
ag3
ag124
ag53
ag5
ag6
ag14
ag7
ag128
ag30
ag9
ag49
ag12
ag32
aa(lp242
g67
ag2
ag19
ag35
ag100
ag41
ag29
ag43
ag44
ag20
ag74
ag124
ag53
ag6
ag14
ag7
ag30
ag9
ag49
ag12
ag32
aa(lp243
g67
ag2
ag19
ag35
ag100
ag41
ag28
ag145
ag29
ag43
ag44
ag20
ag22
ag74
ag3
ag124
ag53
ag5
ag23
ag6
ag16
ag14
ag7
ag128
ag30
ag38
ag25
ag9
ag10
ag49
ag12
ag32
aa(lp244
g67
ag2
ag149
ag28
ag29
ag43
ag63
ag44
ag20
ag22
ag124
ag53
ag6
ag54
ag30
ag38
ag25
ag9
ag12
aa(lp245
g2
ag130
ag28
ag29
ag63
ag44
ag74
ag124
ag53
ag23
ag131
ag6
ag16
ag14
ag7
ag30
ag38
ag25
ag9
ag49
ag12
aa(lp246
g2
ag149
ag44
ag124
ag53
ag23
ag6
ag14
ag25
ag9
ag12
aa(lp247
g2
ag130
ag28
ag44
ag20
ag124
ag53
ag5
ag176
ag6
ag14
ag128
ag30
ag38
ag25
ag9
ag12
aa(lp248
g67
ag2
ag149
ag130
ag28
ag29
ag43
ag63
ag44
ag20
ag22
ag74
ag124
ag53
ag5
ag176
ag23
ag131
ag6
ag16
ag14
ag7
ag54
ag128
ag30
ag38
ag25
ag9
ag49
ag12
aa(lp249
g2
ag19
ag41
ag43
ag6
ag14
ag25
ag12
aa(lp250
g2
ag19
ag43
ag6
ag14
ag38
ag25
ag12
aa(lp251
g2
ag35
ag28
ag43
ag6
ag14
ag7
ag38
ag25
ag9
ag49
ag12
aa(lp252
g2
ag43
ag6
ag14
ag25
ag12
aa(lp253
g2
ag149
ag35
ag43
ag6
ag24
ag14
ag7
ag25
ag9
ag49
ag12
aa(lp254
g2
ag43
ag44
ag6
ag14
ag38
ag12
aa(lp255
g2
ag149
ag35
ag28
ag29
ag43
ag44
ag22
ag6
ag24
ag14
ag7
ag38
ag25
ag9
ag49
ag12
aa(lp256
g2
ag35
ag43
ag6
ag14
ag7
ag54
ag45
ag38
ag25
ag9
ag49
ag12
aa(lp257
g35
ag41
ag28
ag43
ag22
ag53
ag6
ag14
ag38
ag10
ag11
ag12
aa(lp258
g35
ag28
ag29
ag43
ag22
ag53
ag6
ag14
ag7
ag25
ag10
ag11
ag12
aa(lp259
g35
ag28
ag43
ag53
ag23
ag131
ag6
ag14
ag25
ag10
ag11
ag12
aa(lp260
g35
ag29
ag43
ag53
ag6
ag14
ag45
ag25
ag10
ag11
ag12
aa(lp261
g35
ag28
ag29
ag43
ag22
ag53
ag6
ag14
ag54
ag25
ag10
ag11
ag12
aa(lp262
g2
ag35
ag28
ag29
ag43
ag22
ag53
ag4
ag23
ag6
ag14
ag7
ag54
ag45
ag25
ag9
ag10
ag11
ag49
ag12
ag105
aa(lp263
g19
ag35
ag29
ag43
ag22
ag53
ag6
ag14
ag7
ag54
ag25
ag10
ag11
ag12
aa(lp264
g35
ag28
ag29
ag43
ag22
ag6
ag14
ag7
ag25
ag10
ag11
ag12
aa(lp265
g19
ag35
ag28
ag43
ag20
ag23
ag14
ag7
ag54
ag25
ag9
ag10
ag11
ag12
aa(lp266
g35
ag28
ag29
ag43
ag22
ag131
ag6
ag24
ag14
ag25
ag10
ag11
ag12
ag105
aa(lp267
g67
ag2
ag35
ag43
ag22
ag53
ag14
ag38
ag25
ag10
ag11
ag12
aa(lp268
g35
ag28
ag29
ag43
ag22
ag14
ag45
ag25
ag10
ag11
ag49
ag12
aa(lp269
g67
ag2
ag35
ag28
ag29
ag43
ag44
ag22
ag53
ag79
ag6
ag14
ag7
ag54
ag45
ag25
ag10
ag11
ag12
ag105
aa(lp270
g2
ag19
ag20
ag4
ag131
ag6
ag38
ag12
ag135
aa(lp271
g2
ag19
ag100
ag29
ag43
ag20
ag124
ag131
ag6
ag14
ag38
ag9
ag12
aa(lp272
g67
ag2
aS'article_9'
p273
ag4
ag131
ag6
ag24
ag14
ag38
ag12
ag135
aa(lp274
g2
ag273
ag19
ag100
ag41
ag29
ag20
ag3
ag124
ag48
ag4
ag131
ag6
ag24
ag14
ag38
ag65
ag12
ag135
aa(lp275
g2
ag44
ag131
ag6
ag38
ag12
aa(lp276
g2
ag19
ag41
ag44
ag131
ag6
ag38
ag10
ag11
ag12
aa(lp277
g2
ag131
ag6
ag12
aa(lp278
g2
ag273
ag44
ag4
ag131
ag6
ag38
ag12
aa(lp279
g2
ag131
ag6
ag24
ag38
ag10
ag12
aa(lp280
g2
ag131
ag6
ag12
aa(lp281
g2
ag131
ag6
ag12
ag135
aa(lp282
g2
ag19
ag41
ag131
ag6
ag12
aa(lp283
g2
ag273
ag19
ag100
ag41
ag20
ag3
ag124
ag48
ag4
ag131
ag6
ag38
ag10
ag12
ag135
aa(lp284
g2
ag273
ag19
ag100
ag41
ag36
ag43
ag131
ag6
ag30
ag38
ag12
ag135
aa(lp285
g145
ag29
ag43
ag44
ag3
ag38
ag10
ag11
ag12
aa(lp286
g36
ag43
ag3
ag6
ag10
ag11
ag12
ag32
aa(lp287
g273
ag145
ag43
ag74
ag124
aS'trigger'
p288
ag6
ag10
ag11
ag12
aa(lp289
g145
ag29
ag43
ag7
ag30
ag9
ag12
ag32
aa(lp290
g29
ag7
ag10
ag11
ag12
ag32
aa(lp291
g43
ag10
ag11
ag12
aa(lp292
g273
ag145
ag43
ag9
ag10
ag11
ag12
aa(lp293
g273
ag145
ag29
ag43
ag3
ag7
ag10
ag11
ag12
ag32
aa(lp294
g2
ag273
ag19
ag130
ag41
ag145
ag36
ag29
ag43
ag37
ag44
ag3
ag124
ag48
ag288
ag23
ag6
ag7
ag30
ag38
ag25
ag9
ag10
ag11
ag49
ag12
ag32
aa(lp295
g37
ag3
ag11
ag12
aa(lp296
g273
ag149
ag29
ag43
ag3
ag124
ag7
ag154
ag9
ag11
ag12
ag32
aa(lp297
g19
ag145
ag3
ag11
ag12
ag32
aa(lp298
g145
ag29
ag43
ag3
ag48
ag11
ag12
ag32
aa(lp299
g273
ag145
ag43
ag3
ag131
ag7
ag11
ag12
ag32
aa(lp300
g145
ag43
ag3
ag11
ag12
aa(lp301
g19
ag43
ag11
ag12
aa(lp302
g2
ag43
ag3
ag38
ag11
ag12
aa(lp303
g2
ag273
ag19
ag41
ag145
ag29
ag43
ag37
ag44
ag3
ag124
ag48
ag4
ag131
ag6
ag7
ag154
ag38
ag25
ag10
ag11
ag12
ag32
aa(lp304
g2
ag100
ag28
ag43
ag22
ag3
ag124
ag4
ag131
ag6
ag7
ag30
ag9
ag10
ag12
ag32
aa(lp305
g2
ag100
ag28
ag43
ag22
ag3
ag124
ag4
ag131
ag6
ag7
ag30
ag9
ag10
ag12
ag32
aa(lp306
g2
ag3
ag48
ag6
ag24
ag30
ag9
ag10
ag12
ag32
aa(lp307
g2
ag19
ag41
ag74
ag3
ag6
ag24
ag7
ag38
ag25
ag9
ag10
ag11
ag12
ag32
aa(lp308
g2
ag149
ag41
ag44
ag22
ag3
ag4
ag6
ag7
ag30
ag9
ag10
ag65
ag11
ag12
ag32
aa(lp309
g2
ag100
ag41
ag3
ag5
ag6
ag7
ag10
ag11
ag12
ag32
aa(lp310
g19
ag41
ag74
ag3
ag6
ag7
ag9
ag11
ag12
aa(lp311
g2
ag41
ag145
ag29
ag43
ag44
ag22
ag74
ag3
ag6
ag24
ag14
ag7
ag30
ag9
ag10
ag11
ag12
ag32
ag33
aa(lp312
g2
ag149
ag41
ag28
ag22
ag3
ag5
ag23
ag131
ag6
ag24
ag14
ag30
ag38
ag25
ag9
ag10
ag31
ag11
ag12
ag102
ag32
ag135
aa(lp313
g133
ag2
ag19
ag149
ag100
ag41
ag29
ag43
ag44
ag20
ag22
ag74
ag3
ag48
ag4
ag5
ag6
ag7
ag30
ag38
ag25
ag9
ag10
ag65
ag11
ag12
ag102
ag32
aa(lp314
g2
ag19
ag100
ag41
ag36
ag74
ag3
ag131
ag6
ag7
ag30
ag25
ag9
ag10
ag11
ag12
ag32
ag33
aa(lp315
g2
ag82
ag100
ag44
ag3
ag6
ag30
ag25
ag9
ag10
ag11
ag12
ag32
aa(lp316
g2
ag100
ag41
ag36
ag29
ag3
ag4
ag6
ag30
ag9
ag10
ag11
ag12
ag32
ag33
aa(lp317
g2
ag35
ag100
ag29
ag71
ag3
ag124
ag4
ag6
ag24
ag30
ag9
ag10
ag11
ag12
ag32
aa(lp318
g2
ag36
ag71
ag22
ag3
ag6
ag7
ag54
ag25
ag9
ag10
ag11
ag49
ag12
ag32
aa(lp319
g133
ag2
ag19
ag41
ag36
ag74
ag3
ag124
ag6
ag24
ag7
ag30
ag38
ag9
ag11
ag12
ag32
aa(lp320
g2
ag19
ag3
ag6
ag24
ag7
ag30
ag25
ag11
ag12
ag32
aa(lp321
g2
ag19
ag41
ag145
ag36
ag29
ag20
ag22
ag3
ag6
ag24
ag7
ag9
ag10
ag31
ag11
ag12
ag32
aa(lp322
g2
ag19
ag41
ag36
ag43
ag22
ag74
ag3
ag5
ag23
ag6
ag7
ag30
ag25
ag9
ag10
ag31
ag11
ag12
ag32
aa(lp323
g133
ag67
ag2
ag19
ag100
ag41
ag145
ag36
ag29
ag44
ag22
ag74
ag3
ag124
ag4
ag6
ag24
ag7
ag30
ag38
ag25
ag9
ag10
ag11
ag49
ag12
ag32
aa(lp324
g2
ag19
ag41
ag36
ag29
ag22
ag74
ag6
ag24
ag14
ag7
ag30
ag38
ag9
ag31
ag11
ag12
ag32
aa(lp325
g2
ag19
ag41
ag36
ag29
ag6
ag7
ag31
ag11
ag12
aa(lp326
g2
ag19
ag41
ag36
ag29
ag74
ag6
ag7
ag30
ag9
ag12
aa(lp327
g2
ag19
ag41
ag36
ag29
ag6
ag14
ag30
ag12
aa(lp328
g2
ag19
ag41
ag36
ag43
ag6
ag14
ag7
ag30
ag9
ag12
aa(lp329
g67
ag2
ag19
ag41
ag36
ag29
ag43
ag74
ag3
ag23
ag6
ag24
ag14
ag7
ag30
ag25
ag9
ag31
ag11
ag12
aa(lp330
g67
ag2
ag19
ag41
ag145
ag36
ag43
ag44
ag3
ag124
ag4
ag23
ag131
ag6
ag14
ag7
ag30
ag38
ag25
ag9
ag10
ag31
ag11
ag49
ag12
ag105
ag32
aa(lp331
g2
ag19
ag100
ag41
ag36
ag3
ag124
ag4
ag6
ag30
ag38
ag25
ag9
ag10
ag11
ag12
ag32
aa(lp332
g2
ag41
ag28
ag36
ag29
ag3
ag6
ag30
ag38
ag9
ag12
aa(lp333
g2
ag19
ag100
ag41
ag36
ag20
ag74
ag3
ag162
ag6
ag30
ag38
ag25
ag9
ag10
ag11
ag12
ag32
aa(lp334
g2
ag100
ag41
ag36
ag29
ag3
ag5
ag6
ag24
ag30
ag38
ag9
ag10
ag11
ag12
ag32
aa(lp335
g2
ag41
ag36
ag29
ag20
ag3
ag4
ag6
ag38
ag9
ag10
ag12
ag32
aa(lp336
g2
ag19
ag35
ag100
ag41
ag28
ag36
ag29
ag63
ag44
ag20
ag21
ag74
ag3
ag124
ag4
ag5
ag23
ag6
ag24
ag30
ag38
ag25
ag9
ag10
ag11
ag49
ag12
ag105
ag32
ag33
aa(lp337
g2
ag19
ag41
ag36
ag74
ag3
ag124
ag4
ag6
ag24
ag30
ag25
ag9
ag10
ag11
ag12
ag32
aa(lp338
g2
ag19
ag41
ag28
ag36
ag3
ag5
ag6
ag24
ag14
ag7
ag30
ag25
ag10
ag12
ag33
aa(lp339
g2
ag19
ag100
ag41
ag36
ag29
ag22
ag3
ag23
ag6
ag14
ag7
ag30
ag10
ag12
ag32
ag33
aa(lp340
g2
ag36
ag29
ag3
ag124
ag6
ag7
ag9
ag10
ag11
ag12
ag105
ag32
aa(lp341
g2
ag19
ag100
ag41
ag36
ag29
ag63
ag21
ag74
ag3
ag124
ag48
ag6
ag24
ag7
ag30
ag10
ag11
ag12
ag32
aa(lp342
g2
ag19
ag28
ag36
ag29
ag20
ag74
ag3
ag124
ag6
ag7
ag30
ag25
ag9
ag10
ag12
ag32
aa(lp343
g2
ag36
ag3
ag5
ag6
ag7
ag30
ag25
ag9
ag10
ag11
ag12
ag105
ag32
aa(lp344
g2
ag19
ag36
ag63
ag22
ag74
ag3
ag6
ag7
ag10
ag11
ag12
ag32
aa(lp345
g2
ag41
ag36
ag21
ag74
ag3
ag5
ag6
ag7
ag30
ag25
ag9
ag10
ag11
ag12
ag32
aa(lp346
g133
ag67
ag2
ag19
ag41
ag28
ag36
ag29
ag44
ag22
ag3
ag124
ag6
ag7
ag45
ag30
ag10
ag11
ag12
ag32
aa(lp347
g2
aa(lp348
g2
ag19
ag145
ag29
ag43
ag37
ag44
ag74
ag3
ag124
ag4
ag288
ag23
ag131
ag6
ag38
ag25
ag9
ag10
ag11
ag12
aa(lp349
g2
ag19
ag100
ag41
ag36
ag21
ag74
ag3
ag124
ag131
ag6
ag9
ag11
ag12
aa(lp350
g2
ag19
ag35
ag100
ag41
ag36
ag29
ag20
ag74
ag3
ag24
ag25
ag9
ag11
ag49
ag12
ag105
ag135
aa(lp351
g2
ag100
ag41
ag36
ag20
ag3
ag6
ag30
ag9
ag10
ag31
ag11
ag12
aa(lp352
g2
ag19
ag100
ag41
ag36
ag20
ag3
ag30
ag10
ag11
ag12
aa(lp353
g2
ag100
ag41
ag36
ag20
ag21
ag3
ag124
ag5
ag6
ag24
ag10
ag65
ag11
ag12
aa(lp354
g2
ag19
ag35
ag100
ag41
ag36
ag29
ag43
ag20
ag21
ag3
ag124
ag48
ag4
ag5
ag6
ag24
ag7
ag45
ag30
ag25
ag9
ag10
ag65
ag31
ag11
ag49
ag12
ag105
ag32
ag33
ag135
aa(lp355
g29
ag43
ag37
ag3
ag124
ag9
ag12
aa(lp356
g2
ag19
ag100
ag41
ag36
ag43
ag63
ag22
ag74
ag3
ag4
ag23
ag6
ag24
ag14
ag7
ag30
ag38
ag25
ag9
ag11
ag49
ag12
ag105
ag32
aa(lp357
g273
ag19
ag41
ag36
ag29
ag43
ag63
ag74
ag3
ag48
ag4
ag6
ag30
ag38
ag9
ag12
aa(lp358
g19
ag41
ag29
ag43
ag37
ag3
ag6
ag38
ag9
ag10
ag12
aa(lp359
g130
ag145
ag4
ag6
ag7
ag9
ag12
ag32
aa(lp360
g43
ag4
ag6
ag12
aa(lp361
g43
ag124
ag6
ag10
ag12
aa(lp362
g273
ag145
ag29
ag20
ag3
ag4
ag6
ag7
ag25
ag12
aa(lp363
g273
ag145
ag43
ag74
ag3
ag131
ag6
ag7
ag9
ag12
aa(lp364
g273
ag145
ag43
ag3
ag124
ag4
ag6
ag10
ag12
aa(lp365
g273
ag145
ag29
ag43
ag6
ag12
aa(lp366
g273
ag82
ag130
ag145
ag29
ag43
ag37
ag3
ag124
ag4
ag288
ag131
ag6
ag7
ag8
ag25
ag9
ag10
ag49
ag12
ag32
aa(lp367
g19
ag41
ag37
ag20
ag3
ag6
ag25
ag10
ag11
ag12
ag32
aa(lp368
g100
ag29
ag20
ag3
ag5
ag131
ag6
ag14
ag7
ag25
ag9
ag10
ag11
ag12
aa(lp369
g2
ag100
ag29
ag22
ag3
ag4
ag6
ag24
ag7
ag9
ag10
ag11
ag12
ag32
aa(lp370
g100
ag28
ag29
ag20
ag3
ag6
ag24
ag54
ag25
ag10
ag11
ag12
ag33
aa(lp371
g100
ag130
ag20
ag74
ag3
ag6
ag9
ag10
ag11
ag12
ag135
aa(lp372
g19
ag41
ag29
ag74
ag3
ag124
ag6
ag7
ag128
ag25
ag10
ag11
ag12
ag32
ag33
aa(lp373
g35
ag100
ag29
ag3
ag131
ag6
ag24
ag14
ag7
ag25
ag10
ag11
ag12
aa(lp374
g100
ag36
ag29
ag3
ag6
ag30
ag9
ag10
ag11
ag12
aa(lp375
g20
ag3
ag6
ag10
ag11
ag12
ag32
aa(lp376
g22
ag3
ag6
ag24
ag7
ag25
ag9
ag10
ag11
ag12
ag32
aa(lp377
g2
ag18
ag19
ag100
ag130
ag41
ag29
ag71
ag37
ag20
ag22
ag74
ag3
ag124
ag4
ag5
ag131
ag6
ag24
ag14
ag7
ag128
ag30
ag25
ag9
ag10
ag31
ag11
ag12
ag105
ag32
ag33
ag135
aa(lp378
g19
ag41
ag74
ag3
ag6
ag12
ag105
aa(lp379
g43
ag37
ag3
ag9
ag10
ag11
ag12
aa(lp380
g145
ag43
ag37
ag9
ag10
ag11
ag12
aa(lp381
g67
ag2
ag22
ag53
ag6
ag14
ag7
ag38
ag25
ag12
aa(lp382
g2
ag19
ag35
ag43
ag22
ag53
ag6
ag24
ag14
ag25
ag9
ag12
aa(lp383
g2
ag19
ag43
ag53
ag162
ag6
ag24
ag14
ag38
ag9
ag12
aa(lp384
g67
ag2
ag19
ag35
ag43
ag22
ag53
ag6
ag14
ag38
ag25
ag12
aa(lp385
g2
ag41
ag28
ag43
ag44
ag22
ag6
ag14
ag45
ag38
ag25
ag12
aa(lp386
g67
ag2
ag35
ag41
ag28
ag43
ag22
ag53
ag5
ag6
ag14
ag54
ag45
ag25
ag12
aa(lp387
g2
ag28
ag43
ag22
ag6
ag14
ag7
ag45
ag25
ag12
aa(lp388
g2
ag28
ag43
ag22
ag48
ag79
ag6
ag14
ag7
ag45
ag30
ag25
ag9
ag12
aa(lp389
g2
ag35
ag43
ag44
ag22
ag6
ag14
ag45
ag25
ag9
ag11
ag12
aa(lp390
g2
ag35
ag41
ag28
ag43
ag22
ag53
ag23
ag6
ag24
ag14
ag38
ag25
ag9
ag12
aa(lp391
g67
ag2
ag35
ag29
ag43
ag22
ag53
ag6
ag14
ag45
ag9
ag12
aa(lp392
g67
ag2
ag19
ag35
ag28
ag29
ag43
ag63
ag22
ag53
ag5
ag23
ag6
ag14
ag7
ag45
ag38
ag25
ag9
ag12
aa(lp393
a(lp394
g2
ag36
ag43
ag22
ag53
ag6
ag14
ag25
ag12
aa(lp395
a(lp396
a(lp397
a(lp398
a(lp399
a(lp400
g67
ag2
ag19
ag35
ag28
ag29
ag43
ag22
ag124
ag53
ag79
ag23
ag6
ag14
ag7
ag45
ag30
ag25
ag9
ag12
aa(lp401
g67
ag2
ag35
ag28
ag43
ag44
ag20
ag22
ag53
ag6
ag14
ag7
ag45
ag38
ag25
ag9
ag12
aa(lp402
g2
ag28
ag29
ag22
ag124
ag53
ag14
ag7
ag54
ag25
ag12
ag33
aa(lp403
g2
ag29
ag22
ag6
ag9
ag12
aa(lp404
g2
ag28
ag29
ag20
ag22
ag6
ag14
ag7
ag25
ag12
aa(lp405
g2
ag35
ag37
ag48
ag6
ag14
ag9
ag12
aa(lp406
g2
ag35
ag43
ag22
ag124
ag6
ag14
ag12
aa(lp407
g2
ag35
ag145
ag29
ag43
ag44
ag22
ag6
ag14
ag45
ag30
ag25
ag12
aa(lp408
a(lp409
g2
ag35
ag29
ag14
ag7
ag45
ag9
ag12
aa(lp410
g2
ag6
ag25
ag12
aa(lp411
g67
ag2
ag35
ag28
ag145
ag29
ag43
ag44
ag22
ag124
ag48
ag53
ag5
ag6
ag14
ag7
ag54
ag45
ag30
ag38
ag25
ag9
ag12
ag105
aa(lp412
g2
ag100
ag145
ag36
ag29
ag43
ag37
ag44
ag20
ag22
ag134
ag23
ag6
ag14
ag45
ag30
ag38
ag25
ag9
ag39
ag12
aa(lp413
g2
ag29
ag22
ag6
ag14
ag45
ag38
ag25
ag12
aa(lp414
g2
ag149
ag35
ag28
ag29
ag22
ag23
ag6
ag14
ag45
ag38
ag25
ag9
ag12
aa(lp415
g2
ag29
ag22
ag6
ag14
ag38
ag25
ag12
aa(lp416
g2
ag35
ag29
ag37
ag20
ag22
ag23
ag6
ag14
ag45
ag38
ag12
aa(lp417
g2
ag35
ag29
ag43
ag20
ag22
ag23
ag131
ag166
ag14
ag7
ag45
ag30
ag38
ag25
ag9
ag12
aa(lp418
g2
ag35
ag145
ag20
ag22
ag24
ag14
ag45
ag38
ag25
ag11
ag49
ag12
ag33
aa(lp419
g67
ag2
ag145
ag29
ag43
ag37
ag20
ag22
ag23
ag166
ag14
ag7
ag45
ag30
ag38
ag25
ag9
ag12
ag102
aa(lp420
g2
ag28
ag29
ag43
ag20
ag6
ag14
ag7
ag25
ag9
ag12
aa(lp421
g2
ag44
ag22
ag23
ag6
ag14
ag45
ag9
ag12
aa(lp422
g2
ag19
ag35
ag100
ag28
ag145
ag36
ag29
ag43
ag63
ag37
ag44
ag20
ag22
ag124
ag48
ag23
ag131
ag6
ag14
ag7
ag45
ag38
ag25
ag9
ag12
ag33
aa(lp423
g2
ag36
ag29
ag22
ag6
ag14
ag7
ag45
ag38
ag25
ag12
aa(lp424
g2
ag36
ag22
ag6
ag7
ag38
ag25
ag9
ag12
aa(lp425
g2
ag35
ag36
ag44
ag22
ag6
ag14
ag38
ag9
ag12
aa(lp426
g2
ag35
ag36
ag29
ag43
ag44
ag22
ag3
ag6
ag16
ag14
ag45
ag38
ag25
ag9
ag12
aa(lp427
g67
ag2
ag36
ag29
ag20
ag124
ag6
ag14
ag7
ag54
ag45
ag30
ag38
ag12
ag102
ag33
aa(lp428
g2
ag35
ag28
ag36
ag43
ag22
ag6
ag16
ag14
ag45
ag38
ag25
ag9
ag12
aa(lp429
g2
ag100
ag41
ag28
ag36
ag43
ag20
ag22
ag124
ag146
ag23
ag6
ag14
ag45
ag38
ag12
aa(lp430
g2
ag35
ag36
ag29
ag43
ag131
ag6
ag14
ag45
ag9
ag12
aa(lp431
g2
ag35
ag36
ag43
ag22
ag6
ag14
ag38
ag25
ag12
aa(lp432
g2
ag35
ag28
ag36
ag29
ag43
ag37
ag20
ag22
ag3
ag6
ag14
ag7
ag45
ag30
ag38
ag25
ag12
aa(lp433
g67
ag2
ag35
ag36
ag43
ag22
ag6
ag14
ag45
ag12
aa(lp434
g67
ag2
ag149
ag35
ag28
ag145
ag36
ag29
ag43
ag96
ag37
ag44
ag20
ag22
ag146
ag23
ag131
ag6
ag16
ag14
ag7
ag45
ag30
ag38
ag25
ag9
ag12
ag33
aa(lp435
a(lp436
a(lp437
a(lp438
a(lp439
g133
ag2
ag29
aS'operating_entity'
p440
ag134
ag6
ag128
ag8
ag30
ag9
ag10
ag65
ag12
ag32
aa(lp441
a(lp442
a(lp443
a(lp444
a(lp445
a(lp446
a(lp447
g133
ag2
ag36
ag6
ag128
ag30
ag9
ag10
ag12
ag32
aa(lp448
g133
ag2
ag149
ag36
ag29
ag96
ag124
ag23
ag6
ag128
ag38
ag11
ag12
ag32
aa(lp449
g133
ag2
ag149
ag145
ag127
ag36
ag37
ag44
ag48
ag79
ag4
ag5
ag146
ag23
ag166
ag6
ag128
ag30
ag9
ag12
ag102
ag32
aa(lp450
g133
ag2
ag149
ag127
ag36
ag29
ag96
ag44
ag5
ag288
ag146
ag23
ag166
ag6
ag7
ag128
ag45
ag30
ag25
ag9
ag10
ag12
ag32
aa(lp451
g2
ag36
ag29
ag6
ag30
ag10
ag12
aa(lp452
g133
ag2
ag28
ag36
ag440
ag96
ag23
ag6
ag7
ag128
ag45
ag30
ag9
ag10
ag11
ag12
ag32
ag33
aa(lp453
g2
ag36
ag6
ag16
ag30
ag9
ag10
aa(lp454
g133
ag2
ag149
ag145
ag127
ag36
aS'reducing_emissions'
p455
ag5
ag23
ag6
ag16
ag128
ag45
ag8
ag30
ag38
ag9
ag31
ag12
ag105
ag32
aa(lp456
g133
ag138
ag2
ag41
ag28
ag145
ag127
ag36
ag43
ag96
ag22
aS'sink'
p457
ag455
ag79
ag5
ag146
ag23
ag166
ag6
ag14
ag7
ag128
ag45
ag30
ag38
ag9
ag11
ag12
aa(lp458
g133
ag2
ag149
ag41
ag127
ag36
ag29
ag440
ag44
ag22
ag124
aS'future_commitments'
p459
ag79
ag4
ag5
ag134
ag288
ag146
ag23
ag6
ag7
ag128
ag8
ag30
ag9
ag10
ag194
ag12
ag32
aa(lp460
g138
ag2
ag4
ag128
ag8
ag194
aa(lp461
g138
ag2
aS'bunker_fuels'
p462
ag82
ag145
ag36
ag440
ag96
ag44
ag74
ag3
ag48
ag79
ag23
ag6
ag7
ag128
ag8
ag30
ag9
ag10
ag194
ag31
ag12
ag32
aa(lp463
g133
ag138
ag2
ag149
ag41
ag145
ag127
ag29
ag22
ag457
ag455
ag124
ag48
ag4
ag134
ag23
ag166
ag6
ag7
ag128
ag8
ag30
ag38
ag9
ag10
ag194
ag31
ag11
ag12
ag102
ag105
ag32
aS'non-annex_i_national_communications'
p464
aa(lp465
g133
ag138
ag2
ag462
ag19
ag149
ag36
ag22
ag134
ag146
ag23
ag6
ag7
ag128
ag30
ag9
ag10
ag194
ag12
ag32
aa(lp466
g133
ag138
ag2
ag462
ag19
ag149
ag41
ag28
ag36
ag29
ag440
ag43
ag96
ag44
ag20
ag21
ag455
ag124
ag48
ag79
ag4
ag134
ag23
ag166
ag6
ag16
ag7
ag128
ag45
ag8
ag30
ag38
ag9
ag10
ag194
ag31
ag11
ag49
ag12
ag102
ag105
ag32
ag33
aa(lp467
g133
ag138
ag2
ag149
aS'qelros'
p468
ag41
ag28
ag145
ag36
ag29
ag71
ag63
ag96
ag37
ag44
ag124
ag48
ag79
ag4
ag134
aS'bubble'
p469
ag23
ag166
ag7
ag128
ag8
ag30
ag38
ag25
ag9
ag10
ag65
ag194
ag31
ag49
ag12
ag102
ag105
ag32
ag33
aa(lp470
g138
ag2
ag28
ag127
ag36
ag124
ag48
ag6
ag128
ag30
ag9
ag10
ag65
ag194
ag12
ag32
aa(lp471
g138
ag2
ag127
ag36
ag29
ag96
ag79
ag23
ag166
ag6
ag7
ag128
ag30
ag25
ag9
ag10
ag194
ag49
ag12
ag32
aa(lp472
g2
ag36
ag6
ag128
ag8
ag30
ag12
aa(lp473
g138
ag2
ag462
ag36
ag44
ag4
ag6
ag7
ag128
ag30
ag10
ag194
ag49
ag12
aa(lp474
g133
ag138
ag2
ag468
ag36
ag29
ag44
ag53
ag23
ag6
ag128
ag30
ag9
ag10
ag194
ag12
ag32
aa(lp475
g133
ag138
ag2
ag468
ag127
ag36
ag29
ag96
ag44
ag124
ag176
ag23
ag166
ag6
ag128
ag30
ag9
ag10
ag65
ag194
ag12
ag102
aa(lp476
g133
ag138
ag2
ag468
ag41
ag36
ag43
ag63
ag44
ag20
ag124
ag4
ag146
ag6
ag128
ag9
ag10
ag194
ag12
ag105
aa(lp477
g133
ag138
ag2
ag468
ag36
ag29
ag44
ag48
ag4
ag6
ag128
ag45
ag30
ag9
ag10
ag194
ag12
aa(lp478
g133
ag138
ag2
ag149
ag468
ag28
ag145
ag127
ag36
ag457
ag124
ag48
ag459
ag4
ag146
ag23
ag6
ag128
ag9
ag194
ag12
ag102
ag33
aa(lp479
g133
ag138
ag2
ag127
ag36
ag20
ag124
ag4
ag176
ag23
ag166
ag6
ag128
ag30
ag38
ag9
ag10
ag12
aa(lp480
g133
ag138
ag2
ag462
ag18
ag149
ag100
ag468
ag28
ag145
ag127
ag36
ag29
ag71
ag63
ag96
ag37
ag44
ag20
ag22
ag124
ag48
ag53
ag79
ag4
ag5
ag134
ag146
ag176
ag23
ag131
ag166
ag6
ag16
ag7
ag128
ag30
ag38
ag25
ag9
ag10
ag194
ag11
ag49
ag12
ag102
ag32
aa(lp481
g133
ag67
ag138
ag2
ag462
aS'additionality'
p482
ag19
ag468
ag41
ag28
ag127
ag36
ag29
ag44
ag74
ag48
ag79
ag4
ag134
ag146
ag176
ag23
ag6
ag16
aS'harvested_wood_products'
p483
ag7
ag128
ag45
ag8
ag30
ag25
ag9
ag10
ag65
ag194
ag31
ag11
ag12
ag102
ag32
ag33
aa(lp484
g138
ag2
ag28
ag29
ag440
ag43
ag124
ag48
ag459
ag79
ag4
ag288
ag176
ag23
ag6
ag7
ag128
ag8
ag30
ag9
ag10
ag65
ag194
ag12
ag102
ag105
ag32
aa(lp485
g133
ag138
ag2
ag468
ag127
ag96
ag4
ag146
ag176
ag23
ag6
ag128
ag194
ag12
ag102
aa(lp486
g133
ag138
ag2
ag468
ag41
ag145
ag127
ag63
ag124
ag4
ag134
ag176
ag23
ag166
ag128
ag9
ag194
ag31
ag12
aa(lp487
g2
ag468
ag127
ag44
ag124
ag79
ag4
ag134
ag146
ag23
ag128
ag8
ag30
ag194
ag12
aa(lp488
g138
ag2
ag468
ag41
ag28
ag145
ag440
ag20
ag146
ag23
ag166
ag6
ag7
ag128
ag30
ag25
ag9
ag10
ag194
ag12
ag32
aa(lp489
g133
ag138
ag2
ag468
ag41
ag28
ag145
ag440
ag63
ag96
ag44
ag20
ag124
ag459
ag79
ag4
ag134
ag146
ag176
ag23
ag166
ag6
ag7
ag128
ag154
ag30
ag25
ag9
ag10
ag194
ag31
ag12
ag102
ag32
aa(lp490
g133
ag138
ag2
ag145
ag127
ag36
ag96
ag455
ag124
ag79
ag4
ag134
ag176
ag23
ag166
ag6
ag128
ag30
ag9
ag194
ag11
ag12
aa(lp491
g2
ag36
ag29
ag74
ag6
ag128
ag30
ag25
ag65
ag12
aa(lp492
g2
ag36
ag440
ag6
ag8
ag30
ag9
ag10
ag12
ag32
aa(lp493
g2
ag145
ag36
ag29
ag44
ag124
ag4
ag288
ag23
ag30
ag9
ag10
ag194
ag11
ag12
ag32
ag135
aa(lp494
g138
ag2
ag468
ag28
ag127
ag36
ag29
ag44
ag455
ag79
ag4
ag134
ag146
ag176
ag23
ag6
ag7
ag128
ag30
ag9
ag194
ag12
aa(lp495
g138
ag2
ag468
ag36
ag44
ag4
ag134
ag7
ag128
ag30
ag38
ag25
ag9
ag10
ag194
ag12
ag32
aa(lp496
g133
ag138
ag2
ag468
ag127
ag36
ag37
ag44
ag22
ag124
ag4
ag176
ag23
ag166
ag7
ag128
ag30
ag9
ag65
ag194
ag12
ag32
aa(lp497
g138
ag2
ag468
ag127
ag36
ag29
ag459
ag4
ag134
ag176
ag23
ag128
ag30
ag9
ag194
ag12
ag32
aa(lp498
g138
ag2
ag468
ag127
ag36
ag79
ag4
ag146
ag128
ag65
ag194
ag12
aa(lp499
g133
ag138
ag2
ag468
ag41
ag28
ag145
ag127
ag36
ag29
ag96
ag44
ag457
ag455
ag74
ag124
ag48
ag79
ag4
ag134
ag288
ag146
ag176
ag469
ag23
ag131
ag166
ag6
ag7
ag128
ag45
ag8
ag30
ag38
ag25
ag9
ag10
ag65
ag194
ag31
ag11
ag12
ag102
ag32
ag135
aa(lp500
g19
ag41
ag127
ag36
ag43
ag96
ag20
ag457
ag124
ag134
ag146
ag176
ag23
ag166
ag128
ag45
ag30
ag38
ag25
ag9
ag194
ag11
ag12
ag105
aa(lp501
g482
ag468
ag28
ag36
ag29
ag48
ag134
ag6
ag128
ag30
ag9
ag10
ag65
ag12
ag32
ag464
aa(lp502
g138
ag482
ag28
ag127
ag36
ag124
ag48
ag79
ag4
ag6
ag16
ag7
ag128
ag30
ag9
ag10
ag65
ag12
ag32
aa(lp503
g133
ag138
ag149
ag468
ag127
ag36
ag63
ag44
ag124
ag79
ag4
ag176
ag469
ag23
ag6
ag128
ag45
ag30
ag194
ag12
ag102
aa(lp504
g138
ag2
ag149
ag468
ag36
ag44
ag455
ag48
ag4
ag162
ag176
ag23
ag7
ag128
ag194
ag12
ag105
aa(lp505
g138
ag19
ag468
ag36
ag20
ag22
ag457
ag48
ag4
ag134
ag176
ag6
ag128
ag45
ag30
ag194
ag11
ag12
aS'flexibility_mechanisms'
p506
aa(lp507
g138
ag149
ag468
ag36
ag134
ag176
ag469
ag7
ag128
ag154
ag9
ag194
ag11
ag12
ag32
aa(lp508
g138
ag468
ag28
ag36
ag29
ag48
ag53
ag181
ag134
ag469
ag6
ag128
ag8
ag30
ag9
ag10
ag194
ag49
ag12
aa(lp509
g138
ag468
ag36
ag44
ag124
ag134
ag469
ag23
ag6
ag128
ag9
ag10
ag194
ag12
ag32
aa(lp510
g138
ag468
ag36
ag29
ag4
ag176
ag6
ag128
ag30
ag25
ag9
ag194
ag12
ag105
aa(lp511
g133
ag138
ag2
ag462
ag482
ag273
ag18
ag19
ag149
ag468
ag41
ag28
ag145
ag127
ag36
ag29
ag63
ag44
ag20
ag457
ag124
ag48
ag53
ag181
ag79
ag4
ag162
ag134
ag288
ag176
ag469
ag23
ag166
ag6
ag16
ag7
ag128
ag154
ag45
ag8
ag30
ag25
ag9
ag10
ag65
ag194
ag31
ag11
ag49
ag12
ag102
ag32
ag464
aa(lp512
g138
ag468
ag130
ag127
ag36
ag457
ag4
ag134
ag128
ag194
ag31
ag12
ag33
aa(lp513
g133
ag138
ag149
ag468
ag36
ag44
ag4
ag288
ag176
ag469
ag6
ag128
ag30
ag9
ag194
ag12
ag32
aa(lp514
g2
ag468
ag36
ag44
ag4
ag134
ag176
ag469
ag23
ag7
ag128
ag30
ag9
ag31
ag12
aa(lp515
g133
ag2
ag468
ag28
ag127
ag36
ag29
ag96
ag48
ag162
ag134
ag176
ag469
ag23
ag6
ag16
ag7
ag128
ag30
ag9
ag10
ag194
ag11
ag12
ag32
aa(lp516
g138
ag2
ag18
ag468
ag36
ag71
ag21
ag457
ag3
ag48
ag5
ag134
ag146
ag176
ag469
ag6
ag128
ag9
ag31
ag11
ag12
ag33
aa(lp517
g67
ag138
ag2
ag462
ag149
ag468
ag130
ag36
ag96
ag48
ag134
ag176
ag469
ag6
ag128
ag194
ag12
aa(lp518
g138
ag2
ag18
ag468
ag127
ag36
ag71
ag457
ag176
ag469
ag6
ag7
ag128
ag9
ag194
ag31
ag12
ag32
aa(lp519
g133
ag2
ag468
ag28
ag145
ag127
ag36
ag63
ag96
ag124
ag79
ag4
ag162
ag134
ag288
ag146
ag176
ag23
ag6
ag128
ag154
ag30
ag9
ag194
ag12
ag32
aa(lp520
g67
ag138
ag2
ag18
ag19
ag149
ag468
ag127
ag36
ag71
ag96
ag44
ag134
ag176
ag469
ag23
ag68
ag6
ag7
ag128
ag30
ag9
ag11
ag12
aa(lp521
g133
ag67
ag138
ag2
ag462
ag273
ag18
ag149
ag468
ag130
ag41
ag28
ag145
ag127
ag36
ag29
ag71
ag63
ag96
ag44
ag21
ag457
ag124
ag48
ag459
ag79
ag4
ag162
ag134
ag288
ag146
ag176
ag469
ag23
ag68
ag166
ag6
ag16
ag7
ag128
ag154
ag45
ag8
ag30
ag25
ag9
ag10
ag65
ag194
ag31
ag11
ag12
ag102
ag506
ag32
ag33
aa(lp522
g2
ag130
ag28
ag36
ag29
ag124
ag4
ag162
ag176
ag23
ag68
ag166
ag6
ag128
ag154
ag9
ag10
ag31
ag11
ag12
ag506
ag32
ag33
aa(lp523
g133
ag2
ag468
ag130
ag127
ag48
ag79
ag4
ag176
ag68
ag6
ag7
ag128
ag154
ag30
ag9
ag11
ag12
ag506
aa(lp524
g2
ag130
ag127
ag22
ag3
ag79
ag4
ag176
ag23
ag68
ag6
ag7
ag128
ag154
ag8
ag30
ag9
ag10
aS'assigned_amount_units'
p525
ag31
ag11
ag12
ag506
aa(lp526
g133
ag138
ag18
ag130
ag41
ag29
ag440
ag71
ag21
ag457
ag3
ag124
ag48
ag5
ag134
ag146
ag176
ag68
ag6
ag16
ag128
ag30
ag9
ag10
ag31
ag11
ag12
ag506
ag32
ag33
aa(lp527
g133
ag35
ag130
ag4
ag288
ag146
ag176
ag68
ag6
ag128
ag30
ag31
ag11
ag12
ag506
aa(lp528
g138
ag124
ag4
ag288
ag176
ag23
ag68
ag6
ag128
ag30
ag9
ag11
ag12
ag506
aa(lp529
g130
ag145
ag44
ag21
ag79
ag4
ag176
ag469
ag6
ag128
ag30
ag9
ag10
ag194
ag31
ag11
ag12
ag32
ag33
aa(lp530
g67
ag455
ag4
ag176
ag68
ag6
ag128
ag154
ag30
ag25
ag9
ag194
ag31
ag11
ag12
ag32
ag33
aa(lp531
g482
ag130
ag48
ag4
ag176
ag68
ag6
ag128
ag9
ag65
ag31
ag11
ag12
ag33
aa(lp532
g133
ag138
ag2
ag482
ag18
ag35
ag82
ag468
ag130
ag41
ag127
ag29
ag440
ag71
ag22
ag457
ag3
ag124
ag48
ag79
ag4
ag134
ag288
ag146
ag176
ag469
ag23
ag68
ag6
ag16
ag7
ag128
ag154
ag45
ag8
ag30
ag25
ag9
ag10
ag525
ag65
ag194
ag31
ag11
ag12
ag102
ag506
ag32
ag33
aa(lp533
g138
ag2
ag482
ag468
ag130
ag124
ag4
ag176
ag68
ag128
ag25
ag9
ag10
ag65
ag194
ag31
ag11
ag12
ag506
ag32
ag33
aa(lp534
g2
ag149
ag130
ag44
ag68
ag16
ag128
ag30
ag9
ag10
ag194
ag11
ag12
ag506
aa(lp535
g2
ag130
ag457
ag48
ag134
ag128
ag8
ag30
ag9
ag10
ag31
ag11
ag12
ag506
aa(lp536
g133
ag2
aS'global_climate_observing_system'
p537
ag130
ag29
ag457
ag53
ag181
ag4
ag469
ag68
ag6
ag16
ag7
ag128
ag154
ag30
ag38
ag9
ag10
ag11
ag12
ag506
ag32
ag135
aa(lp538
g537
ag3
ag124
ag6
ag16
ag128
ag8
ag30
ag9
ag10
ag11
ag12
ag506
ag32
aa(lp539
g2
ag130
ag96
ag3
ag5
ag23
ag68
ag166
ag6
ag128
ag30
ag9
ag10
ag31
ag11
ag12
ag32
ag33
aa(lp540
g133
ag82
ag130
ag29
ag53
ag181
ag134
ag128
ag30
ag9
ag10
ag31
ag11
ag12
ag506
ag32
ag464
ag33
aa(lp541
g133
ag130
ag29
ag6
ag128
ag30
ag10
ag11
ag12
ag506
ag32
aa(lp542
g67
ag138
ag2
ag482
ag82
ag130
ag36
ag29
ag96
ag44
ag22
ag3
ag4
ag23
ag68
ag166
ag6
ag128
ag154
ag30
ag25
ag9
ag10
ag31
ag11
ag12
ag506
aa(lp543
g133
ag2
ag149
ag130
ag28
ag124
ag4
ag176
ag23
aS'compliance_system'
p544
ag68
ag6
ag7
ag54
ag128
ag154
ag45
ag30
ag25
ag9
ag10
ag65
ag11
ag12
ag506
ag32
aa(lp545
g133
ag67
ag138
ag2
ag537
ag149
ag82
ag468
ag130
ag28
ag29
ag63
ag96
ag44
ag457
ag124
ag53
ag181
ag4
ag5
ag134
ag176
ag469
ag23
ag68
ag6
ag16
ag7
ag54
ag128
ag154
ag45
ag8
ag30
ag25
ag9
ag10
ag65
ag194
ag31
ag11
ag12
ag506
ag32
ag464
ag33
ag135
aa(lp546
g133
ag67
ag138
ag2
ag482
ag82
ag468
ag130
ag28
ag127
ag36
ag29
ag63
ag96
ag44
ag3
ag124
ag48
ag459
ag53
ag4
ag162
aS'adaptation_fund'
p547
ag134
ag176
ag23
ag68
ag166
ag6
ag7
ag128
ag154
ag45
ag30
ag25
ag9
ag10
ag525
ag65
ag194
ag11
ag12
ag102
ag105
ag506
ag32
aa(lp548
a(lp549
g2
ag18
ag41
ag29
ag71
ag44
ag21
ag3
ag124
ag48
ag4
ag162
ag5
ag166
ag6
ag24
ag14
ag7
ag30
ag38
ag9
ag10
ag31
ag11
ag12
ag33
aa(lp550
a(lp551
a(lp552
a(lp553
a(lp554
a(lp555
a(lp556
a(lp557
a(lp558
a(lp559
a(lp560
a(lp561
g2
ag41
ag28
ag36
ag29
ag21
ag6
ag30
ag38
ag9
ag31
ag11
ag12
ag33
aa(lp562
g2
ag100
ag28
ag36
ag29
ag21
ag3
ag4
ag6
ag30
ag38
ag9
ag31
ag11
ag12
ag33
aa(lp563
g2
ag100
ag28
ag36
ag29
ag20
ag21
ag3
ag4
ag6
ag24
ag7
ag54
ag30
ag38
ag9
ag31
ag11
ag12
ag33
aa(lp564
g2
ag36
ag21
ag3
ag288
ag6
ag30
ag11
ag12
aa(lp565
g67
ag2
ag18
ag28
ag36
ag71
ag20
ag21
ag22
ag4
ag5
ag23
ag6
ag128
ag30
ag38
ag25
ag9
ag31
ag11
ag12
ag33
aa(lp566
g2
ag28
ag36
ag29
ag44
ag124
ag23
ag6
ag30
ag31
ag11
ag49
ag12
aa(lp567
g67
ag2
ag28
ag36
ag29
ag20
ag3
ag6
ag30
ag38
ag9
ag39
ag31
ag11
ag12
ag33
aa(lp568
g2
ag100
ag28
ag36
ag29
ag21
ag22
ag3
ag124
ag5
ag131
ag6
ag24
ag30
ag9
ag10
ag11
ag12
ag33
aa(lp569
g67
ag2
ag41
ag36
ag22
ag3
ag5
ag23
ag6
ag7
ag30
ag25
ag9
ag31
ag11
ag12
ag33
aa(lp570
g2
ag149
ag36
ag29
ag6
ag9
ag11
ag49
ag12
aa(lp571
g2
ag18
ag100
ag41
ag28
ag36
ag29
ag71
ag44
ag21
ag22
ag74
ag3
ag124
ag4
ag5
ag288
ag23
ag131
ag6
ag24
ag16
ag7
ag54
ag128
ag30
ag38
ag25
ag9
ag39
ag31
ag11
ag49
ag12
ag33
aa(lp572
g2
ag21
ag3
ag5
ag6
ag30
ag9
ag31
ag11
ag12
ag33
aa(lp573
g2
ag28
ag21
ag74
ag3
ag6
ag24
ag7
ag30
ag38
ag31
ag11
ag12
ag33
aa(lp574
g2
ag28
ag29
ag22
ag74
ag5
ag6
ag7
ag30
ag38
ag9
ag11
ag12
aa(lp575
g2
ag100
ag28
ag29
ag21
ag22
ag3
ag5
ag6
ag24
ag7
ag30
ag31
ag11
ag12
aa(lp576
g2
ag100
ag71
ag20
ag3
ag5
ag6
ag24
ag7
ag30
ag38
ag25
ag9
ag11
ag12
aa(lp577
g2
ag100
ag28
ag29
ag6
ag24
ag30
ag38
ag9
ag11
ag12
aa(lp578
g2
ag18
ag29
ag71
ag21
ag3
ag4
ag6
ag24
ag38
ag9
ag31
ag11
ag12
aa(lp579
g2
ag19
ag28
ag29
ag6
ag14
ag7
ag30
ag9
ag31
ag11
ag12
aa(lp580
g2
ag100
ag28
ag36
ag29
ag71
ag20
ag21
ag22
ag3
ag5
ag131
ag6
ag24
ag14
ag7
ag54
ag30
ag38
ag25
ag9
ag10
ag31
ag11
ag12
ag33
aa(lp581
g2
ag19
ag41
ag29
ag5
ag23
ag6
ag16
ag14
ag7
ag30
ag9
ag10
ag11
ag12
aa(lp582
g2
ag41
ag21
ag74
ag3
ag6
ag7
ag30
ag25
ag10
ag11
ag12
aa(lp583
g2
ag28
ag29
ag71
ag44
ag20
ag124
ag53
ag4
ag6
ag7
ag30
ag38
ag9
ag10
ag31
ag11
ag12
aa(lp584
g67
ag2
ag18
ag35
ag28
ag29
ag71
ag21
ag74
ag23
ag6
ag16
ag14
ag7
ag54
ag30
ag25
ag9
ag10
ag11
ag12
aa(lp585
g130
ag28
ag29
ag22
ag3
ag53
ag6
ag16
ag14
ag7
ag38
ag9
ag10
ag31
ag11
ag12
aa(lp586
g18
ag130
ag41
ag28
ag22
ag3
ag162
ag5
ag23
ag16
ag14
ag7
ag9
ag10
ag31
ag11
ag12
ag33
aa(lp587
g2
ag100
ag29
ag43
ag20
ag21
ag22
ag3
ag23
ag24
ag30
ag10
ag11
ag12
ag32
aa(lp588
g67
ag28
ag29
ag3
ag23
ag131
ag16
ag14
ag7
ag54
ag30
ag25
ag9
ag10
ag11
ag12
aa(lp589
g2
ag29
ag22
ag3
ag124
ag7
ag31
ag11
ag12
aa(lp590
g18
ag35
ag100
ag28
ag71
ag3
ag6
ag7
ag9
ag10
ag11
ag12
aa(lp591
g2
ag18
ag35
ag100
ag130
ag41
ag28
ag29
ag71
ag37
ag21
ag22
ag74
ag3
ag53
ag4
ag5
ag288
ag23
ag131
ag6
ag24
ag16
ag14
ag7
ag54
ag30
ag38
ag9
ag10
ag31
ag11
ag49
ag12
ag32
ag33
aa(lp592
g2
ag5
ag7
ag9
ag31
ag11
ag12
aa(lp593
g2
ag35
ag28
ag29
ag21
ag3
ag6
ag24
ag7
ag30
ag9
ag10
ag31
ag11
ag12
ag105
aa(lp594
g67
ag19
ag100
ag41
ag28
ag29
ag22
ag3
ag131
ag6
ag24
ag7
ag128
ag38
ag9
ag10
ag31
ag11
ag12
aa(lp595
g2
ag28
ag29
ag43
ag22
ag6
ag54
ag9
ag11
ag12
aa(lp596
g2
ag100
ag43
ag71
ag20
ag21
ag22
ag3
ag23
ag6
ag24
ag7
ag30
ag38
ag9
ag10
ag11
ag12
ag32
aa(lp597
g2
ag149
ag100
ag130
ag3
ag68
ag6
ag7
ag9
ag10
ag11
ag12
aa(lp598
g29
ag21
ag3
ag7
ag9
ag10
ag11
ag12
aa(lp599
g28
ag29
ag22
ag74
ag3
ag53
ag5
ag6
ag7
ag30
ag9
ag10
ag31
ag11
ag12
ag32
aa(lp600
g130
ag3
ag68
ag6
ag7
ag30
ag38
ag9
ag10
ag11
ag12
aa(lp601
g67
ag2
ag35
ag100
ag41
ag28
ag29
ag43
ag21
ag22
ag74
ag3
ag124
ag4
ag5
ag23
ag131
ag6
ag24
ag14
ag7
ag54
ag30
ag38
ag9
ag10
ag31
ag11
ag12
ag32
ag33
aa(lp602
g2
ag19
ag35
ag41
ag29
ag43
ag63
ag44
ag22
ag124
ag6
ag24
ag14
ag25
ag9
ag12
aa(lp603
g2
ag35
ag150
ag36
ag43
ag22
ag5
ag6
ag14
ag7
ag25
ag12
aa(lp604
g2
ag35
ag41
ag29
ag43
ag22
ag53
ag6
ag14
ag45
ag38
ag25
ag12
aa(lp605
g2
ag35
ag41
ag43
ag44
ag22
ag53
ag6
ag14
ag45
ag25
ag12
aa(lp606
g2
ag35
ag43
ag6
ag14
ag25
ag9
ag12
aa(lp607
g2
ag35
ag43
ag6
ag14
ag45
ag12
aa(lp608
g2
ag35
ag43
ag20
ag6
ag14
ag25
ag12
aa(lp609
g2
ag35
ag29
ag43
ag44
ag22
ag53
ag131
ag6
ag14
ag7
ag45
ag25
ag9
ag10
ag12
aa(lp610
g2
ag35
ag43
ag22
ag6
ag14
ag25
ag12
aa(lp611
g2
ag35
ag28
ag43
ag22
ag6
ag14
ag45
ag25
ag12
aa(lp612
g2
ag35
ag43
ag6
ag14
ag12
aa(lp613
g2
ag35
ag43
ag22
ag6
ag14
ag25
ag12
aa(lp614
g2
ag35
ag43
ag6
ag14
ag7
ag25
ag9
ag12
aa(lp615
g12
aa(lp616
g2
ag35
ag36
ag43
ag22
ag6
ag14
ag25
ag9
ag12
aa(lp617
g2
ag35
ag43
ag23
ag6
ag14
ag25
ag12
ag105
aa(lp618
g2
ag35
ag43
ag22
ag6
ag14
ag12
ag105
aa(lp619
g2
ag35
ag36
ag43
ag22
ag74
ag6
ag14
ag45
ag25
ag9
ag12
aa(lp620
g12
aa(lp621
g2
ag35
ag41
ag28
ag36
ag29
ag43
ag44
ag22
ag6
ag14
ag7
ag45
ag25
ag9
ag65
ag12
ag105
aa(lp622
g2
ag19
ag35
ag36
ag43
ag22
ag4
ag6
ag14
ag7
ag38
ag25
ag12
aa(lp623
g2
ag273
ag35
ag29
ag43
ag22
ag48
ag6
ag14
ag38
ag25
ag9
ag10
ag11
ag12
aa(lp624
g2
ag19
ag100
ag41
ag145
ag43
ag37
ag124
ag48
ag4
ag23
ag6
ag7
ag128
ag38
ag9
ag10
ag65
ag12
aa(lp625
g2
ag273
ag19
ag149
ag36
ag43
ag3
ag124
ag4
ag5
ag288
ag6
ag7
ag128
ag45
ag8
ag12
ag32
aa(lp626
g12
aa(lp627
g2
ag273
ag19
ag149
ag82
ag36
ag43
ag124
ag288
ag6
ag128
ag8
ag30
ag9
ag12
ag105
aa(lp628
g145
ag43
ag124
ag128
ag11
ag12
aa(lp629
g19
ag145
ag43
ag4
ag6
ag14
ag128
ag38
ag11
ag12
aa(lp630
g19
ag35
ag41
ag43
ag124
ag14
ag7
ag128
ag30
ag25
ag9
ag11
ag12
aa(lp631
g19
ag41
ag43
ag20
ag6
ag7
ag8
ag30
ag25
ag9
ag10
ag11
ag12
ag105
aa(lp632
g4
ag6
ag7
ag8
ag11
ag12
aa(lp633
g19
ag35
ag82
ag41
ag145
ag29
ag43
ag44
ag20
ag124
ag4
ag6
ag16
ag14
ag7
ag128
ag8
ag30
ag38
ag25
ag9
ag10
ag11
ag12
ag105
aa(lp634
g2
ag19
ag41
ag36
ag43
ag124
ag23
ag131
ag6
ag16
ag7
ag30
ag38
ag9
ag10
ag11
ag12
ag32
aa(lp635
g2
ag19
ag41
ag145
ag43
ag37
ag20
ag124
ag4
ag6
ag128
ag8
ag9
ag10
ag31
ag11
ag12
ag105
ag135
aa(lp636
g12
aa(lp637
g149
ag145
ag43
ag37
ag23
ag8
ag9
ag10
ag65
ag11
ag12
ag32
aa(lp638
g29
ag43
ag44
ag74
ag124
ag4
ag131
ag8
ag30
ag25
ag10
ag11
ag12
ag105
aa(lp639
g149
ag29
ag43
ag74
ag131
ag6
ag24
ag16
ag8
ag30
ag9
ag10
ag11
ag12
ag32
aa(lp640
g149
ag43
ag124
ag6
ag7
ag8
ag25
ag10
ag11
ag12
ag32
aa(lp641
g19
ag149
ag41
ag145
ag29
ag43
ag44
ag74
ag124
ag48
ag4
ag23
ag131
ag6
ag7
ag8
ag30
ag25
ag9
ag10
ag65
ag11
ag49
ag12
ag105
ag32
aa(lp642
g2
ag82
ag44
ag124
ag6
ag7
ag8
ag10
ag11
ag12
aa(lp643
g2
ag35
ag3
ag124
ag5
ag131
ag6
ag14
ag30
ag25
ag9
ag10
ag11
ag12
aa(lp644
g2
ag35
ag100
ag29
ag20
ag124
ag23
ag6
ag25
ag9
ag10
ag11
ag12
aa(lp645
g2
ag482
ag100
ag20
ag124
ag5
ag6
ag25
ag9
ag10
ag11
ag12
aa(lp646
g2
ag35
ag29
ag43
ag20
ag22
ag5
ag23
ag6
ag14
ag9
ag10
ag11
ag12
aa(lp647
g2
ag482
ag35
ag82
ag100
ag130
ag29
ag96
ag44
ag20
ag22
ag3
ag124
ag48
ag5
ag23
ag6
ag14
ag7
ag45
ag8
ag30
ag38
ag25
ag9
ag10
ag11
ag12
ag105
aa(lp648
g100
ag20
ag3
ag5
ag6
ag38
ag25
ag10
ag65
ag11
ag12
aa(lp649
g2
ag100
ag20
ag22
ag3
ag23
ag6
ag24
ag14
ag7
ag128
ag25
ag9
ag10
ag11
ag12
ag32
aa(lp650
g41
ag29
ag43
ag20
ag3
ag131
ag6
ag7
ag25
ag10
ag11
ag12
ag105
aa(lp651
g2
ag19
ag100
ag29
ag20
ag3
ag48
ag131
ag6
ag7
ag10
ag11
ag12
aa(lp652
g2
ag20
ag3
ag38
ag25
ag10
ag11
ag12
ag33
aa(lp653
g100
ag44
ag3
ag4
ag6
ag24
ag14
ag38
ag25
ag10
ag11
ag12
ag105
aa(lp654
g28
ag29
ag20
ag3
ag5
ag6
ag45
ag38
ag9
ag10
ag65
ag11
ag12
aa(lp655
g2
ag6
ag25
ag10
ag11
ag12
aa.