(lp0
S'freshwater_scarcity'
p1
aS'human'
p2
aS'fossil_fuels'
p3
aS'kyoto_protocol'
p4
aS'emission_reduction'
p5
aS'rainforest_destruction'
p6
aS'climate_change'
p7
aS'greenhouse_gases'
p8
aS'aerosols'
p9
aS'sea_level_rise'
p10
a.