(lp0
(lp1
a(lp2
S'emissions'
p3
aS'intergovernmental_panel_on_climate_change'
p4
aa(lp5
g3
aS'binding_commitments'
p6
aS'technology_transfer'
p7
aa(lp8
S'development'
p9
aa(lp10
S'financial_mechanism'
p11
ag3
aS'technology'
p12
aa(lp13
g3
aa(lp14
g11
aS'fund'
p15
aa(lp16
a(lp17
S'global_environment_facility'
p18
ag11
ag15
ag7
aa(lp19
a(lp20
g3
aa(lp21
g3
aa(lp22
g3
aS'small_island'
p23
aa(lp24
g12
aa(lp25
a(lp26
g11
aa(lp27
g18
aa(lp28
a(lp29
a(lp30
a(lp31
S'co2'
p32
ag3
aa(lp33
g23
aa(lp34
a(lp35
g4
aa(lp36
g18
ag11
ag15
aa(lp37
a(lp38
S'global_warming_potentials'
p39
aS'gases'
p40
ag3
aS'uncertainty'
p41
aa(lp42
g15
aS'forest'
p43
ag41
aS'models'
p44
aS'fossil_fuels'
p45
aa(lp46
g39
ag3
aS'flexibility'
p47
ag41
aa(lp48
g3
aa(lp49
S'policies_and_measures'
p50
ag32
ag3
aS'land_use'
p51
aS'forestry'
p52
aS'stabilization'
p53
aS'energy'
p54
aS'fuels'
p55
aS'transport'
p56
aS'transportation'
p57
aa(lp58
g18
ag15
aa(lp59
g18
ag9
aa(lp60
g18
ag15
aa(lp61
a(lp62
g18
ag11
ag15
aa(lp63
g3
ag23
aa(lp64
g11
aa(lp65
g9
aa(lp66
a(lp67
g9
aS'emissions_inventories'
p68
ag40
ag32
ag3
aa(lp69
g3
aa(lp70
S'baseline'
p71
ag3
aa(lp72
g3
ag47
aa(lp73
g23
aa(lp74
g18
ag11
aa(lp75
a(lp76
g18
ag11
ag15
aa(lp77
a(lp78
S'operating_entity'
p79
ag18
ag11
ag15
aa(lp80
a(lp81
a(lp82
g79
ag15
aa(lp83
g11
aa(lp84
g79
ag11
aa(lp85
g11
ag15
aS'private_sector'
p86
aa(lp87
g11
aa(lp88
g3
ag23
aa(lp89
g23
aa(lp90
g23
aa(lp91
g32
ag3
ag7
ag23
aS'article_9'
p92
aa(lp93
g50
ag32
ag3
aS'afforestation'
p94
aS'renewable_energy'
p95
aS'energy_efficiency'
p96
aa(lp97
a(lp98
g57
aa(lp99
g50
ag6
aS'business'
p100
ag23
aa(lp101
g3
aa(lp102
g3
aS'differentiated_responsibilities'
p103
ag23
aa(lp104
g11
aa(lp105
g18
ag11
aa(lp106
g11
aa(lp107
g11
aa(lp108
g15
aS'research_and_development'
p109
ag7
aa(lp110
g79
aa(lp111
g11
ag3
aa(lp112
a(lp113
a(lp114
g11
aa(lp115
a(lp116
g23
aa(lp117
g18
ag40
ag3
ag86
aa(lp118
g71
aa(lp119
g12
aa(lp120
g11
ag15
aS'sustainable_development'
p121
ag86
aa(lp122
g11
aa(lp123
g79
aa(lp124
g79
ag18
aS'montreal_protocol'
p125
ag3
aa(lp126
g18
ag7
aa(lp127
a(lp128
g18
ag11
aa(lp129
g15
aa(lp130
g15
ag71
aa(lp131
a(lp132
g11
aa(lp133
a(lp134
g47
aa(lp135
g11
aa(lp136
S'biodiversity'
p137
aa(lp138
a(lp139
a(lp140
a(lp141
g15
aa(lp142
a(lp143
a(lp144
a(lp145
a(lp146
g86
ag7
aa(lp147
a(lp148
g47
aa(lp149
a(lp150
a(lp151
g92
aa(lp152
g3
aS'bunker_fuels'
p153
aa(lp154
a(lp155
a(lp156
a(lp157
g11
aa(lp158
a(lp159
a(lp160
g18
ag15
aa(lp161
g23
aa(lp162
a(lp163
g15
aa(lp164
a(lp165
a(lp166
g125
ag54
aa(lp167
g15
aa(lp168
a(lp169
a(lp170
a(lp171
a(lp172
a(lp173
a(lp174
g137
ag23
aa(lp175
a(lp176
g11
aa(lp177
a(lp178
a(lp179
a(lp180
g41
aa(lp181
g15
ag100
aa(lp182
a(lp183
g50
aa(lp184
g18
ag32
ag47
aa(lp185
g11
aa(lp186
g18
aa(lp187
S'agriculture'
p188
aS'industry'
p189
ag12
ag7
ag56
aa(lp190
g18
aa(lp191
g15
aa(lp192
a(lp193
a(lp194
g137
aa(lp195
a(lp196
a(lp197
a(lp198
a(lp199
g7
aa(lp200
a(lp201
g15
aa(lp202
a(lp203
g9
aa(lp204
g32
ag3
ag53
aa(lp205
g23
aa(lp206
a(lp207
a(lp208
g3
aa(lp209
g100
aa(lp210
a(lp211
a(lp212
a(lp213
g3
aa(lp214
g3
aa(lp215
g121
ag12
aa(lp216
g18
ag11
aa(lp217
a(lp218
g7
aa(lp219
a(lp220
a(lp221
a(lp222
g15
aS'least_developed_countries'
p223
aa(lp224
a(lp225
a(lp226
a(lp227
a(lp228
a(lp229
a(lp230
g100
aa(lp231
a(lp232
a(lp233
a(lp234
g68
aa(lp235
a(lp236
a(lp237
a(lp238
g39
ag32
aa(lp239
g79
ag11
aa(lp240
g11
ag3
ag7
aa(lp241
g79
ag11
ag100
aa(lp242
a(lp243
g100
aa(lp244
g3
ag4
aa(lp245
g3
ag6
ag7
aa(lp246
g9
aa(lp247
g11
ag3
ag12
aa(lp248
g3
aa(lp249
g11
ag15
aa(lp250
a(lp251
g18
ag11
ag15
ag7
aa(lp252
a(lp253
g3
aa(lp254
g18
ag11
ag23
aa(lp255
a(lp256
a(lp257
g3
aa(lp258
g11
aa(lp259
g11
aa(lp260
S'nuclear'
p261
ag121
aa(lp262
a(lp263
a(lp264
g261
aa(lp265
a(lp266
g121
ag54
aa(lp267
g11
ag3
aa(lp268
g9
aa(lp269
g189
ag86
ag23
aa(lp270
g103
ag43
ag95
aa(lp271
g3
aa(lp272
S'international_cooperation'
p273
aa(lp274
a(lp275
a(lp276
g23
aa(lp277
a(lp278
a(lp279
a(lp280
g11
aa(lp281
g15
aa(lp282
a(lp283
a(lp284
a(lp285
a(lp286
a(lp287
a(lp288
a(lp289
a(lp290
a(lp291
g23
aa(lp292
g3
ag41
aa(lp293
a(lp294
g32
ag3
ag53
ag23
aa(lp295
a(lp296
g47
ag54
ag23
aa(lp297
g3
aa(lp298
g9
ag23
aa(lp299
g3
ag54
ag96
ag55
ag56
ag57
aa(lp300
g23
aa(lp301
g121
ag103
ag54
ag23
aa(lp302
g9
ag53
aa(lp303
g3
aa(lp304
g3
ag103
ag100
ag45
aa(lp305
a(lp306
g32
ag3
aa(lp307
g11
ag3
ag7
ag23
aa(lp308
g3
ag12
aa(lp309
g3
aa(lp310
a(lp311
g9
aS'desertification'
p312
ag54
ag100
aa(lp313
a(lp314
g9
ag32
ag3
ag12
ag45
aa(lp315
g15
ag261
aa(lp316
S'education'
p317
ag9
ag96
aa(lp318
g312
aa(lp319
g32
ag3
ag54
ag96
ag12
aa(lp320
S'vulnerable'
p321
ag23
aa(lp322
g100
ag23
aa(lp323
g9
ag103
ag23
aa(lp324
g3
ag23
aa(lp325
S'inaction'
p326
ag23
aa(lp327
a(lp328
a(lp329
g3
aa(lp330
g3
aa(lp331
g95
ag86
aa(lp332
S'financial_resources'
p333
ag86
ag7
aa(lp334
g9
aa(lp335
g121
ag9
ag7
aa(lp336
g3
ag12
aa(lp337
g333
ag12
ag7
aa(lp338
g333
ag121
aa(lp339
g12
ag86
aa(lp340
g18
ag9
aa(lp341
g18
ag11
aa(lp342
a(lp343
a(lp344
a(lp345
g7
aa(lp346
g9
ag86
ag7
aa(lp347
g18
ag9
aa(lp348
g18
aa(lp349
a(lp350
a(lp351
a(lp352
a(lp353
a(lp354
a(lp355
a(lp356
a(lp357
a(lp358
g18
ag121
aa(lp359
g7
aa(lp360
a(lp361
g121
ag9
ag51
ag43
ag7
ag23
aa(lp362
g18
ag11
ag15
ag333
ag9
aa(lp363
g18
ag9
aa(lp364
g7
aa(lp365
a(lp366
a(lp367
g79
ag11
aa(lp368
g79
aa(lp369
g15
ag326
ag95
aS'investment'
p370
aa(lp371
g9
ag7
ag321
ag23
aa(lp372
g3
aa(lp373
S'lack_of_progress'
p374
ag3
aa(lp375
a(lp376
g79
ag11
aa(lp377
g7
aa(lp378
a(lp379
g333
ag12
aa(lp380
g7
aa(lp381
g54
aa(lp382
g7
aa(lp383
a(lp384
g12
ag7
aa(lp385
g12
ag7
aa(lp386
a(lp387
g7
aa(lp388
g15
aa(lp389
g15
aa(lp390
a(lp391
a(lp392
a(lp393
a(lp394
a(lp395
a(lp396
g7
aa(lp397
a(lp398
g18
ag15
ag7
aa(lp399
a(lp400
a(lp401
a(lp402
a(lp403
a(lp404
a(lp405
g121
ag32
ag3
ag12
aa(lp406
g3
aa(lp407
g11
aa(lp408
a(lp409
S'political_will'
p410
aa(lp411
g9
ag103
aa(lp412
g32
ag3
ag12
aa(lp413
g52
aa(lp414
a(lp415
g23
aa(lp416
g3
ag54
ag23
aa(lp417
g54
aa(lp418
g32
ag3
aa(lp419
a(lp420
g3
aa(lp421
g3
aa(lp422
a(lp423
a(lp424
a(lp425
g321
aa(lp426
S'reducing_emissions'
p427
aa(lp428
g3
aa(lp429
g9
ag312
aa(lp430
g11
ag125
ag3
aa(lp431
g3
aa(lp432
g15
ag7
ag23
aa(lp433
g9
aa(lp434
g103
ag12
aa(lp435
g32
ag3
aa(lp436
g32
ag3
ag44
ag7
ag56
aa(lp437
g9
ag273
ag7
aa(lp438
a(lp439
a(lp440
a(lp441
a(lp442
g3
aa(lp443
g54
ag56
aa(lp444
g261
aS'health'
p445
ag9
aa(lp446
g188
ag121
ag427
aa(lp447
g445
ag9
aa(lp448
g50
ag121
ag9
ag54
ag273
aa(lp449
g333
ag121
ag3
ag7
aa(lp450
g9
ag32
ag3
ag96
aa(lp451
g333
ag312
ag12
aa(lp452
g333
ag12
ag7
aa(lp453
g3
ag95
ag54
ag12
aa(lp454
S'poverty'
p455
ag121
ag9
ag3
ag23
aa(lp456
S'women'
p457
ag54
ag56
aa(lp458
g43
ag12
aa(lp459
g53
aa(lp460
g445
ag312
aa(lp461
g45
ag321
aa(lp462
g7
aa(lp463
a(lp464
g7
ag23
aa(lp465
g9
ag12
aa(lp466
g9
ag32
ag3
aS'sink'
p467
ag312
ag370
ag96
ag56
aa(lp468
a(lp469
a(lp470
g9
ag3
ag7
aa(lp471
g3
ag12
aa(lp472
a(lp473
a(lp474
a(lp475
g9
aa(lp476
a(lp477
g3
aS'berlin_mandate'
p478
aa(lp479
g50
ag3
aa(lp480
g50
ag32
ag3
aa(lp481
g12
ag7
aa(lp482
g41
aa(lp483
g18
ag11
aa(lp484
g18
ag11
ag15
ag12
aa(lp485
a(lp486
g71
aS'carbon_sequestration'
p487
ag189
aa(lp488
g370
aa(lp489
a(lp490
a(lp491
g261
ag3
ag478
ag4
aa(lp492
g333
aa(lp493
a(lp494
g54
aa(lp495
g18
ag317
aa(lp496
g15
ag32
ag3
ag53
aa(lp497
g3
ag86
ag7
aa(lp498
g50
ag3
aa(lp499
g18
ag11
aa(lp500
g15
ag478
ag54
ag109
aa(lp501
g18
ag95
ag54
ag96
ag109
aa(lp502
g3
ag12
aa(lp503
g478
aa(lp504
a(lp505
a(lp506
a(lp507
g18
aa(lp508
a(lp509
S'human_rights'
p510
ag125
aa(lp511
g261
ag125
aa(lp512
a(lp513
a(lp514
a(lp515
g15
aa(lp516
a(lp517
a(lp518
a(lp519
S'most_vulnerable'
p520
aa(lp521
a(lp522
a(lp523
a(lp524
g3
aa(lp525
g103
aa(lp526
S'performance_indicators'
p527
ag7
aa(lp528
a(lp529
a(lp530
a(lp531
a(lp532
a(lp533
a(lp534
g18
ag15
aa(lp535
g18
ag15
aa(lp536
g18
aa(lp537
a(lp538
g333
ag47
ag7
aa(lp539
a(lp540
g3
ag7
aa(lp541
g50
ag9
ag3
ag153
aa(lp542
a(lp543
g9
ag100
aa(lp544
g9
ag100
aa(lp545
a(lp546
g109
aa(lp547
a(lp548
g478
aa(lp549
g18
ag15
aa(lp550
g18
ag11
ag15
aa(lp551
g18
ag15
aa(lp552
g68
ag3
aa(lp553
g7
aa(lp554
g7
aa(lp555
g18
aa(lp556
g12
ag23
aa(lp557
a(lp558
a(lp559
g100
aa(lp560
g12
ag7
aa(lp561
g54
aS'enabling_environment'
p562
ag12
ag86
ag7
aa(lp563
g12
ag86
ag7
aa(lp564
a(lp565
g3
aa(lp566
a(lp567
a(lp568
g103
ag23
aa(lp569
a(lp570
a(lp571
g478
aa(lp572
g23
aa(lp573
a(lp574
g12
ag86
ag7
aa(lp575
g12
ag86
ag7
aa(lp576
S'annex_i_national_communications'
p577
ag18
aa(lp578
g50
aa(lp579
g50
ag9
aa(lp580
g50
ag3
ag326
ag95
ag55
aa(lp581
S'qelros'
p582
ag326
aa(lp583
g582
aa(lp584
g32
ag3
ag582
aa(lp585
g71
ag3
aS'emissions_trading'
p586
ag582
aa(lp587
g9
ag3
ag12
aa(lp588
g586
ag54
ag100
ag189
ag96
aa(lp589
a(lp590
a(lp591
g9
ag12
aa(lp592
g100
aa(lp593
g18
ag7
aa(lp594
g478
aa(lp595
g478
aa(lp596
g326
aS'innovation'
p597
ag45
aa(lp598
g3
ag478
ag326
ag44
ag189
aa(lp599
g427
ag597
aa(lp600
g100
aa(lp601
g3
aa(lp602
a(lp603
g9
ag12
aa(lp604
a(lp605
a(lp606
a(lp607
g188
ag445
ag23
aa(lp608
a(lp609
g50
ag582
aa(lp610
a(lp611
g50
ag582
aa(lp612
g50
aa(lp613
g3
aa(lp614
g50
ag47
ag6
aa(lp615
g50
ag121
ag582
aa(lp616
g582
aa(lp617
g18
ag15
aa(lp618
g478
aa(lp619
a(lp620
g50
ag3
ag582
ag47
ag41
ag23
aa(lp621
a(lp622
g50
ag582
aa(lp623
g50
aa(lp624
g582
aa(lp625
g3
ag47
aa(lp626
g9
ag7
aa(lp627
a(lp628
a(lp629
a(lp630
g3
aa(lp631
g12
ag7
aa(lp632
g18
ag121
ag100
ag86
aa(lp633
a(lp634
g577
aa(lp635
g321
aa(lp636
g18
ag15
aa(lp637
a(lp638
S'future_commitments'
p639
ag478
aa(lp640
g9
ag3
aa(lp641
g50
ag582
aa(lp642
g32
ag3
ag478
aa(lp643
g23
aa(lp644
g478
aa(lp645
g9
ag3
aa(lp646
g32
ag3
aa(lp647
g50
aa(lp648
g50
ag261
ag47
ag6
ag273
aa(lp649
g9
aa(lp650
g9
ag103
ag478
ag467
ag51
aa(lp651
g9
ag326
ag41
ag189
ag96
aa(lp652
g50
ag9
ag103
aa(lp653
g32
ag3
ag54
ag56
aa(lp654
g12
aa(lp655
g15
ag12
aa(lp656
g9
ag3
ag54
ag12
ag55
ag45
aa(lp657
g9
ag3
ag410
aa(lp658
g54
ag370
aa(lp659
g478
aa(lp660
a(lp661
a(lp662
g3
aa(lp663
g189
aa(lp664
g9
ag520
aa(lp665
g18
aa(lp666
S'water'
p667
ag54
ag12
aa(lp668
a(lp669
a(lp670
g50
ag9
aa(lp671
g478
aa(lp672
S'base_year'
p673
aa(lp674
a(lp675
g32
ag3
aa(lp676
g50
ag3
ag47
ag12
aa(lp677
g96
ag7
aa(lp678
g50
aa(lp679
g12
aa(lp680
a(lp681
g96
aa(lp682
g273
aa(lp683
a(lp684
a(lp685
g586
ag47
ag6
aa(lp686
g3
ag478
aa(lp687
a(lp688
a(lp689
g3
ag23
aa(lp690
g11
ag9
aS'kyoto_protocol'
p691
aS'land-use_change'
p692
ag51
ag52
aS'lulucf'
p693
aa(lp694
S'enforcement'
p695
aS'compliance_system'
p696
ag9
ag125
ag691
aa(lp697
a(lp698
g50
ag261
ag41
ag54
ag370
ag55
ag45
aa(lp699
a(lp700
a(lp701
g47
aa(lp702
g121
ag9
ag7
aa(lp703
g9
ag3
ag693
ag54
aa(lp704
S'clean_development_mechanism'
p705
ag691
ag95
ag23
aS'vulnerability_and_adaptation'
p706
aa(lp707
S'adaptation_needs'
p708
aS'domestic_action'
p709
ag705
ag23
aa(lp710
g445
ag121
ag95
ag54
ag12
ag7
aa(lp711
g11
ag692
ag51
ag52
ag693
aa(lp712
g410
aa(lp713
g9
aS'flexibility_mechanisms'
p714
ag52
aa(lp715
g121
ag32
ag3
ag54
aa(lp716
g705
aS'vulnerable_countries'
p717
aa(lp718
g50
aa(lp719
a(lp720
a(lp721
a(lp722
g18
ag15
ag333
ag3
aa(lp723
a(lp724
g23
aa(lp725
S'expert_review'
p726
ag23
aa(lp727
g333
aa(lp728
a(lp729
g693
ag4
ag7
aa(lp730
g50
ag3
aa(lp731
g691
ag467
ag693
aa(lp732
S'additional_activities'
p733
aa(lp734
g41
aa(lp735
g695
ag586
aa(lp736
g696
ag9
aa(lp737
a(lp738
a(lp739
a(lp740
g50
ag321
aa(lp741
g41
ag54
aa(lp742
a(lp743
g18
ag15
ag223
aa(lp744
g726
ag696
ag691
aa(lp745
a(lp746
g18
ag23
aa(lp747
g7
aa(lp748
g705
aa(lp749
g705
ag487
ag23
aa(lp750
a(lp751
g23
aa(lp752
g15
aa(lp753
a(lp754
a(lp755
g705
ag23
aa(lp756
g696
aa(lp757
g50
aa(lp758
a(lp759
g692
ag51
ag52
ag693
ag41
aa(lp760
g9
ag692
ag51
ag52
ag693
aa(lp761
a(lp762
a(lp763
a(lp764
a(lp765
a(lp766
g7
aa(lp767
g705
ag12
ag86
ag7
aS'adaptation_technologies'
p768
ag23
aa(lp769
g50
ag273
aa(lp770
g3
ag55
aS'maritime'
p771
ag57
aa(lp772
g3
aa(lp773
g3
aa(lp774
g3
aa(lp775
g103
aa(lp776
S'climate_change_impacts'
p777
aS'harvested_wood_products'
p778
aa(lp779
a(lp780
S'hydrofluorocarbons'
p781
aS'perfluorocarbons'
p782
ag3
ag768
aa(lp783
a(lp784
g705
aa(lp785
a(lp786
g333
aa(lp787
g18
ag15
aa(lp788
a(lp789
a(lp790
g9
ag691
ag692
ag51
ag52
ag693
ag7
aa(lp791
S'ozone'
p792
ag781
ag782
aS'hfcs'
p793
aa(lp794
g793
ag12
aa(lp795
g705
ag9
ag768
ag23
aa(lp796
g18
ag15
aS'global_climate_observing_system'
p797
aS'observing_systems'
p798
ag12
aa(lp799
a(lp800
S'facilitative_branch'
p801
ag695
ag696
ag23
aa(lp802
a(lp803
g726
aa(lp804
a(lp805
a(lp806
a(lp807
a(lp808
g15
ag333
ag7
aa(lp809
a(lp810
a(lp811
g705
aa(lp812
a(lp813
a(lp814
g79
ag18
ag11
ag223
aa(lp815
g692
ag51
ag52
ag693
aa(lp816
a(lp817
a(lp818
g23
aa(lp819
g696
aa(lp820
g3
aa(lp821
a(lp822
a(lp823
g797
aa(lp824
a(lp825
g3
ag693
ag41
aa(lp826
a(lp827
a(lp828
a(lp829
a(lp830
g188
ag3
ag692
ag693
aa(lp831
g691
ag692
ag51
ag52
ag693
aa(lp832
a(lp833
a(lp834
a(lp835
a(lp836
g12
aa(lp837
a(lp838
a(lp839
g3
ag733
aa(lp840
g705
ag86
aa(lp841
g121
aa(lp842
g71
ag705
ag3
ag43
ag12
aa(lp843
g705
ag121
ag3
aa(lp844
g15
ag705
ag370
aa(lp845
g15
aS'additionality'
p846
ag705
ag47
ag86
aa(lp847
g18
ag15
ag846
ag705
ag86
aa(lp848
a(lp849
g15
ag121
aa(lp850
g11
ag691
ag692
ag51
ag52
ag693
ag7
aa(lp851
g7
aa(lp852
g50
aa(lp853
g15
aa(lp854
g9
ag12
ag7
aa(lp855
g9
ag781
ag782
ag3
ag12
aa(lp856
a(lp857
g3
ag55
ag57
aa(lp858
g3
ag43
aa(lp859
a(lp860
a(lp861
a(lp862
g18
ag11
aa(lp863
a(lp864
a(lp865
S'non-annex_i_national_communications'
p866
aa(lp867
a(lp868
g726
ag696
aa(lp869
g696
aa(lp870
a(lp871
a(lp872
g3
ag733
aa(lp873
g846
ag705
aa(lp874
g374
ag3
ag153
aa(lp875
g3
aa(lp876
g374
ag691
aa(lp877
g261
ag705
ag121
ag9
ag54
ag370
ag100
aa(lp878
g15
ag9
ag54
ag100
ag12
ag86
aa(lp879
g312
aa(lp880
g709
ag792
aa(lp881
g12
aa(lp882
g709
ag705
aa(lp883
a(lp884
a(lp885
g709
ag9
aa(lp886
g18
ag261
ag705
ag455
ag121
aS'reforestation'
p887
ag94
ag54
aa(lp888
g696
aa(lp889
g9
aa(lp890
g333
ag12
aa(lp891
g692
ag23
aa(lp892
g333
ag7
aa(lp893
g9
ag23
aa(lp894
g50
ag3
ag23
aa(lp895
g18
ag15
aa(lp896
g11
aa(lp897
a(lp898
g846
ag586
aS'assigned_amount_units'
p899
ag23
aa(lp900
g3
ag410
aa(lp901
g3
ag691
ag692
ag51
ag52
ag693
ag55
ag57
aa(lp902
g333
ag32
ag95
ag7
aa(lp903
a(lp904
g709
ag705
ag427
ag86
aa(lp905
a(lp906
a(lp907
g691
aa(lp908
g410
aa(lp909
a(lp910
a(lp911
a(lp912
a(lp913
g709
aS'supplementarity'
p914
ag705
aa(lp915
g696
aa(lp916
S'economies_in_transition'
p917
aa(lp918
g705
aa(lp919
a(lp920
a(lp921
g333
aa(lp922
a(lp923
a(lp924
g11
ag693
aa(lp925
g103
ag55
ag57
aa(lp926
g18
ag11
aa(lp927
a(lp928
g691
aa(lp929
g709
aa(lp930
a(lp931
a(lp932
a(lp933
a(lp934
g3
aa(lp935
a(lp936
g9
ag7
aa(lp937
a(lp938
a(lp939
a(lp940
g18
aa(lp941
a(lp942
g223
aa(lp943
g3
ag693
aa(lp944
a(lp945
a(lp946
a(lp947
g792
ag781
ag782
ag32
ag3
aa(lp948
g3
ag55
ag56
aa(lp949
a(lp950
g3
ag691
aa(lp951
g188
ag445
ag57
aa(lp952
g9
ag3
aa(lp953
g705
ag3
ag478
ag586
ag691
aa(lp954
g3
aa(lp955
a(lp956
g9
ag3
ag12
ag321
aa(lp957
g9
ag12
aa(lp958
g50
ag696
ag3
ag7
aa(lp959
a(lp960
a(lp961
g50
ag51
ag52
ag693
ag7
aa(lp962
a(lp963
a(lp964
g693
aa(lp965
a(lp966
g586
aa(lp967
g223
aa(lp968
S'adaptation_fund'
p969
ag223
ag7
aa(lp970
g3
ag691
aa(lp971
a(lp972
g71
ag705
ag3
aS'accounting_rules'
p973
ag887
aa(lp974
g50
aa(lp975
g709
ag3
ag586
aa(lp976
g705
ag586
aa(lp977
g71
ag3
ag467
ag43
ag693
aa(lp978
g887
ag733
aa(lp979
g695
ag696
ag103
ag691
aa(lp980
g374
ag12
aa(lp981
g15
ag223
ag717
aa(lp982
a(lp983
g9
ag4
ag44
aa(lp984
a(lp985
a(lp986
a(lp987
g11
ag50
ag692
ag51
ag52
ag693
ag7
aa(lp988
a(lp989
g9
aa(lp990
g9
ag3
ag691
ag100
aa(lp991
g188
ag445
ag4
ag109
ag86
aa(lp992
a(lp993
a(lp994
a(lp995
g691
aa(lp996
a(lp997
g15
ag427
ag7
aa(lp998
g709
aa(lp999
g705
ag695
ag586
aa(lp1000
g586
aa(lp1001
a(lp1002
a(lp1003
a(lp1004
a(lp1005
a(lp1006
a(lp1007
g693
aa(lp1008
g693
aa(lp1009
a(lp1010
g3
aa(lp1011
g50
aa(lp1012
g3
aS'international_aviation'
p1013
ag153
aa(lp1014
g797
aa(lp1015
g137
aa(lp1016
a(lp1017
g18
ag15
aa(lp1018
a(lp1019
g18
ag11
ag15
aa(lp1020
a(lp1021
g693
ag41
aa(lp1022
S'prompt_start'
p1023
ag705
aa(lp1024
g223
ag846
ag71
ag705
ag899
aa(lp1025
g586
aa(lp1026
g9
ag12
aa(lp1027
S'technology_transfer_mechanism'
p1028
ag12
aa(lp1029
a(lp1030
a(lp1031
g7
aa(lp1032
g50
ag9
ag692
ag51
ag52
ag693
aa(lp1033
g695
aa(lp1034
g695
ag887
ag94
ag733
aa(lp1035
g695
ag47
aa(lp1036
a(lp1037
a(lp1038
a(lp1039
a(lp1040
a(lp1041
S'forest_management'
p1042
ag733
ag693
aa(lp1043
g705
ag973
ag733
ag693
aa(lp1044
g693
ag23
aa(lp1045
g223
aa(lp1046
a(lp1047
a(lp1048
g50
aa(lp1049
a(lp1050
a(lp1051
g9
ag7
aa(lp1052
g9
ag12
ag7
aa(lp1053
g12
aa(lp1054
g15
ag12
aa(lp1055
a(lp1056
g86
ag7
aa(lp1057
g705
ag7
aa(lp1058
a(lp1059
a(lp1060
a(lp1061
g693
aa(lp1062
a(lp1063
g7
aa(lp1064
g11
ag50
ag9
ag692
ag51
ag52
ag693
aa(lp1065
g887
ag94
ag693
aa(lp1066
g733
ag43
aa(lp1067
g887
ag94
aa(lp1068
g1042
aa(lp1069
a(lp1070
g43
aa(lp1071
a(lp1072
g733
aa(lp1073
g887
ag94
aa(lp1074
g11
ag333
ag7
aa(lp1075
g3
ag693
aa(lp1076
g726
aa(lp1077
g726
aa(lp1078
g50
ag586
aa(lp1079
a(lp1080
g705
ag9
ag12
aa(lp1081
g12
ag7
aa(lp1082
g9
ag12
aa(lp1083
g333
aa(lp1084
g86
ag7
aa(lp1085
g12
aa(lp1086
g15
ag333
aa(lp1087
g50
aa(lp1088
a(lp1089
a(lp1090
a(lp1091
a(lp1092
g79
ag18
ag11
aa(lp1093
a(lp1094
a(lp1095
g801
ag695
aa(lp1096
g261
ag705
ag54
aa(lp1097
a(lp1098
g7
aa(lp1099
a(lp1100
g693
aa(lp1101
g121
ag777
aa(lp1102
g11
ag50
ag9
ag692
ag51
ag52
ag693
aa(lp1103
g695
ag586
aa(lp1104
g15
aa(lp1105
g15
aa(lp1106
a(lp1107
g11
aa(lp1108
g18
ag11
aa(lp1109
g705
aS'cers'
p1110
aa(lp1111
g586
aa(lp1112
g9
aa(lp1113
g7
aa(lp1114
g562
ag12
aa(lp1115
a(lp1116
g7
aa(lp1117
g50
aa(lp1118
a(lp1119
a(lp1120
a(lp1121
g969
ag15
ag223
aa(lp1122
a(lp1123
a(lp1124
g3
ag693
aa(lp1125
g693
aa(lp1126
g1110
ag693
aa(lp1127
S'leakage'
p1128
ag3
ag467
ag52
ag693
ag41
ag487
aa(lp1129
g3
aS'forest_conservation'
p1130
ag43
aa(lp1131
g1128
ag693
ag12
aa(lp1132
a(lp1133
g846
ag1128
ag52
ag693
ag41
aa(lp1134
g1128
ag693
aa(lp1135
g693
aa(lp1136
g79
ag18
ag11
aa(lp1137
g15
ag914
ag733
aa(lp1138
g50
aa(lp1139
g11
aa(lp1140
g11
ag50
ag9
ag692
ag51
ag52
ag693
aa(lp1141
a(lp1142
g15
ag3
aa(lp1143
g50
aa(lp1144
g223
aa(lp1145
a(lp1146
a(lp1147
a(lp1148
g673
aa(lp1149
g68
aa(lp1150
a(lp1151
g467
ag693
ag41
ag487
aa(lp1152
g43
ag693
aa(lp1153
g43
aa(lp1154
a(lp1155
g9
ag7
aa(lp1156
g86
ag7
aa(lp1157
g15
aa(lp1158
g79
ag18
ag11
ag15
ag7
aa(lp1159
a(lp1160
g18
ag15
ag9
aa(lp1161
a(lp1162
g11
aa(lp1163
a(lp1164
g79
ag11
aa(lp1165
a(lp1166
a(lp1167
g79
ag18
ag11
aa(lp1168
g18
aa(lp1169
g15
aa(lp1170
g11
ag50
ag9
ag692
ag51
ag52
ag693
aa(lp1171
g705
aa(lp1172
a(lp1173
g15
ag7
aa(lp1174
a(lp1175
a(lp1176
g9
ag7
aa(lp1177
g693
aa(lp1178
a(lp1179
g50
aa(lp1180
a(lp1181
a(lp1182
g79
ag18
ag11
ag15
ag223
ag47
aa(lp1183
g11
aa(lp1184
a(lp1185
g312
aa(lp1186
a(lp1187
a(lp1188
g917
aa(lp1189
g11
ag917
aa(lp1190
a(lp1191
a(lp1192
a(lp1193
g223
ag1023
ag914
ag121
aa(lp1194
a(lp1195
g223
ag333
aa(lp1196
g1128
ag693
aa(lp1197
a(lp1198
g3
aa(lp1199
g9
ag12
ag7
aa(lp1200
g50
aa(lp1201
a(lp1202
a(lp1203
g7
aa(lp1204
g41
aa(lp1205
a(lp1206
a(lp1207
a(lp1208
g50
ag1023
ag3
ag692
ag51
ag52
ag693
aa(lp1209
a(lp1210
a(lp1211
g223
ag9
ag3
aa(lp1212
g3
aa(lp1213
g18
ag15
ag3
ag57
aa(lp1214
g7
aa(lp1215
g121
ag4
aa(lp1216
g1023
ag121
ag9
ag3
ag103
ag273
aa(lp1217
g455
ag121
ag9
ag137
ag312
ag693
ag54
aa(lp1218
g969
ag1023
ag261
ag705
ag121
ag9
ag3
ag54
ag100
aa(lp1219
g100
aa(lp1220
g51
ag43
aa(lp1221
g40
ag3
ag7
aa(lp1222
g18
aa(lp1223
g15
ag693
ag7
aa(lp1224
g7
aa(lp1225
a(lp1226
g43
ag487
aa(lp1227
g86
ag23
aa(lp1228
a(lp1229
g733
ag693
aa(lp1230
a(lp1231
a(lp1232
a(lp1233
a(lp1234
g50
ag692
ag51
ag52
ag693
ag7
aa(lp1235
a(lp1236
g457
aa(lp1237
g691
aa(lp1238
g103
aa(lp1239
g103
aa(lp1240
a(lp1241
g50
ag3
ag273
aa(lp1242
g709
aa(lp1243
g47
aa(lp1244
g261
ag705
ag121
ag95
aa(lp1245
a(lp1246
g467
ag693
aa(lp1247
g705
ag51
aa(lp1248
g223
ag7
ag520
aa(lp1249
g7
aa(lp1250
g15
ag54
aa(lp1251
g18
ag705
aa(lp1252
g969
ag18
ag7
aa(lp1253
g121
ag3
ag917
aa(lp1254
a(lp1255
a(lp1256
g693
ag7
aa(lp1257
a(lp1258
g18
ag15
ag223
ag7
aa(lp1259
g18
ag7
aa(lp1260
g18
ag11
ag15
ag12
ag86
ag23
aa(lp1261
g15
ag917
ag7
aa(lp1262
g709
ag914
ag705
ag714
ag47
aa(lp1263
g705
ag47
aa(lp1264
g969
ag15
ag586
aa(lp1265
g705
aa(lp1266
g261
aa(lp1267
g586
aa(lp1268
a(lp1269
g846
ag47
ag693
ag41
aa(lp1270
g50
ag693
ag57
aa(lp1271
a(lp1272
a(lp1273
a(lp1274
a(lp1275
g50
ag692
ag51
ag52
ag693
ag7
aa(lp1276
g103
aa(lp1277
g3
aa(lp1278
g709
ag3
aa(lp1279
g223
ag705
ag95
aa(lp1280
g261
ag1128
ag705
ag54
aa(lp1281
g15
aa(lp1282
g12
ag86
ag7
aa(lp1283
g223
ag333
aa(lp1284
g189
ag45
aa(lp1285
g969
ag333
aa(lp1286
a(lp1287
a(lp1288
g15
ag7
aa(lp1289
g18
ag15
ag223
ag9
ag47
ag12
ag7
aa(lp1290
g15
ag1023
ag914
ag705
aa(lp1291
g846
ag914
ag705
ag693
aa(lp1292
g693
aa(lp1293
g11
ag333
ag50
ag696
ag47
aa(lp1294
g86
aa(lp1295
g15
ag23
aa(lp1296
g50
ag68
aa(lp1297
g914
aa(lp1298
g726
ag23
aa(lp1299
a(lp1300
a(lp1301
a(lp1302
g914
ag47
ag693
aa(lp1303
a(lp1304
a(lp1305
a(lp1306
g7
aa(lp1307
g846
ag914
ag705
ag586
aa(lp1308
g733
ag693
aa(lp1309
g11
ag50
aa(lp1310
a(lp1311
g969
ag18
ag15
ag223
ag705
aa(lp1312
a(lp1313
a(lp1314
a(lp1315
g969
ag15
aa(lp1316
g969
ag15
ag223
ag705
aa(lp1317
g18
ag15
ag223
ag705
ag7
aa(lp1318
g18
ag9
ag586
aa(lp1319
g12
ag7
aa(lp1320
a(lp1321
g50
ag47
ag96
ag45
aa(lp1322
g18
ag223
ag705
ag9
ag7
aa(lp1323
g1023
aa(lp1324
g261
ag709
ag914
ag705
ag1110
ag801
ag121
ag3
ag95
ag96
aa(lp1325
g3
aa(lp1326
g223
ag705
aa(lp1327
g705
aa(lp1328
g887
ag94
ag43
ag693
aa(lp1329
g3
ag673
ag973
ag1042
ag733
ag43
ag41
aa(lp1330
g969
ag1128
ag887
ag94
ag693
ag41
aa(lp1331
g50
aa(lp1332
g801
ag695
ag3
aa(lp1333
g695
ag696
aa(lp1334
a(lp1335
g733
aa(lp1336
a(lp1337
a(lp1338
g3
ag691
aa(lp1339
g445
aa(lp1340
g9
aa(lp1341
g705
ag3
ag478
ag586
ag691
aa(lp1342
g9
ag3
ag12
ag321
aa(lp1343
a(lp1344
g11
ag50
ag692
ag51
ag52
ag693
ag7
aa(lp1345
g914
ag693
aa(lp1346
a(lp1347
g15
ag261
ag693
aa(lp1348
a(lp1349
a(lp1350
a(lp1351
g693
ag7
aa(lp1352
g15
ag3
aa(lp1353
g914
ag705
ag887
ag94
ag693
aa(lp1354
g973
ag887
ag1042
ag94
ag693
aa(lp1355
g692
ag51
ag52
ag693
ag7
aa(lp1356
a(lp1357
g692
ag51
ag52
ag693
ag7
aa(lp1358
a(lp1359
g3
ag733
ag693
aa(lp1360
g693
aa(lp1361
g1042
aa(lp1362
a(lp1363
g11
ag7
aa(lp1364
S'napas'
p1365
ag11
ag333
aa(lp1366
g18
ag15
ag333
aa(lp1367
g15
aa(lp1368
g18
ag15
aa(lp1369
a(lp1370
g223
aa(lp1371
g18
ag15
aa(lp1372
g374
aa(lp1373
a(lp1374
a(lp1375
g705
ag1110
ag691
aa(lp1376
g846
ag709
ag914
ag1128
ag705
ag3
ag7
aa(lp1377
a(lp1378
a(lp1379
g693
aa(lp1380
g692
ag51
ag52
ag693
aa(lp1381
g801
ag695
aa(lp1382
g899
ag6
aa(lp1383
g695
aa(lp1384
g801
ag103
aa(lp1385
a(lp1386
a(lp1387
g969
ag914
ag705
ag1110
aa(lp1388
g914
ag705
ag9
ag586
aa(lp1389
a(lp1390
g846
ag3
ag1042
ag693
aa(lp1391
g733
aa(lp1392
g705
ag1042
aa(lp1393
a(lp1394
a(lp1395
g9
aa(lp1396
g7
aa(lp1397
g7
aa(lp1398
a(lp1399
g223
ag9
aa(lp1400
a(lp1401
a(lp1402
a(lp1403
a(lp1404
g693
aa(lp1405
g692
ag51
ag52
ag693
aa(lp1406
g1023
aa(lp1407
S'impact_assessments'
p1408
aa(lp1409
g261
ag914
ag705
ag1110
aa(lp1410
g261
ag705
aa(lp1411
g15
ag846
ag705
aa(lp1412
g695
aa(lp1413
g695
aa(lp1414
a(lp1415
g801
ag103
aa(lp1416
a(lp1417
a(lp1418
g15
aa(lp1419
g3
aa(lp1420
g15
aa(lp1421
g969
ag15
aa(lp1422
g917
aa(lp1423
g9
ag54
aa(lp1424
a(lp1425
g7
aa(lp1426
g693
aa(lp1427
g973
aa(lp1428
g3
ag917
ag673
ag693
aa(lp1429
g41
aa(lp1430
g261
aa(lp1431
a(lp1432
a(lp1433
g691
aa(lp1434
g15
ag7
aa(lp1435
g973
ag887
ag692
ag94
ag733
ag51
ag52
ag693
aa(lp1436
g846
ag261
ag914
ag705
ag586
aa(lp1437
g846
ag914
ag705
ag321
aa(lp1438
g801
ag695
aa(lp1439
a(lp1440
a(lp1441
a(lp1442
g370
aa(lp1443
g3
ag4
ag273
ag12
aa(lp1444
a(lp1445
g15
ag586
ag47
ag693
aa(lp1446
g696
ag188
ag43
ag41
aS'market_mechanisms'
p1447
aa(lp1448
a(lp1449
g261
ag709
aa(lp1450
a(lp1451
g693
aa(lp1452
a(lp1453
a(lp1454
a(lp1455
a(lp1456
g692
ag51
ag52
ag693
aa(lp1457
a(lp1458
a(lp1459
a(lp1460
g693
ag7
aa(lp1461
S'special_climate_change_fund'
p1462
ag18
ag15
aS'special_climate_change_fund'
p1463
aa(lp1464
g7
aa(lp1465
g50
ag3
aa(lp1466
g50
ag709
ag914
ag801
ag695
aa(lp1467
g261
ag1110
aa(lp1468
a(lp1469
g846
ag705
aa(lp1470
g846
ag71
ag1042
ag733
ag693
aa(lp1471
g1462
ag969
ag15
ag1463
aa(lp1472
g261
ag914
aa(lp1473
g693
aa(lp1474
g846
ag71
ag705
ag1408
ag1110
ag3
ag95
ag96
aa(lp1475
a(lp1476
a(lp1477
a(lp1478
g693
aa(lp1479
g15
aa(lp1480
g261
ag709
ag914
ag801
aa(lp1481
g693
aa(lp1482
g696
ag1447
aa(lp1483
g50
ag47
ag7
aa(lp1484
a(lp1485
g15
ag846
ag261
ag709
ag705
ag695
ag887
ag1042
ag94
ag733
ag693
aa(lp1486
a(lp1487
a(lp1488
a(lp1489
a(lp1490
a(lp1491
a(lp1492
g695
aa(lp1493
a(lp1494
a(lp1495
a(lp1496
a(lp1497
g15
aa(lp1498
g15
ag708
aa(lp1499
g15
aa(lp1500
g15
aa(lp1501
a(lp1502
a(lp1503
a(lp1504
a(lp1505
a(lp1506
a(lp1507
a(lp1508
g9
aa(lp1509
a(lp1510
g137
ag312
aa(lp1511
g455
ag137
ag693
aa(lp1512
a(lp1513
a(lp1514
g777
ag3
ag55
ag771
ag57
aa(lp1515
g3
ag43
ag12
ag7
aa(lp1516
g317
aa(lp1517
g3
ag44
aa(lp1518
g50
ag23
aa(lp1519
g693
aa(lp1520
g705
ag887
ag94
aa(lp1521
a(lp1522
g51
ag52
ag693
aa(lp1523
a(lp1524
a(lp1525
g1042
aa(lp1526
a(lp1527
g693
aa(lp1528
g1462
ag969
ag18
ag1463
aa(lp1529
g846
ag71
ag705
ag1408
ag1110
aa(lp1530
g705
aa(lp1531
a(lp1532
a(lp1533
g801
ag695
aa(lp1534
g9
ag1042
ag733
ag693
aa(lp1535
g15
ag7
aa(lp1536
g1042
aa(lp1537
a(lp1538
a(lp1539
g692
ag51
ag52
ag693
aa(lp1540
g586
ag693
aa(lp1541
g705
ag693
aa(lp1542
a(lp1543
g7
aa(lp1544
g1462
ag969
ag1463
aa(lp1545
g15
ag321
aa(lp1546
a(lp1547
g1462
ag969
ag18
ag15
ag1463
aa(lp1548
a(lp1549
a(lp1550
g801
ag695
ag917
aa(lp1551
a(lp1552
g639
ag1042
ag693
aa(lp1553
a(lp1554
g887
ag94
ag693
aa(lp1555
g312
aa(lp1556
a(lp1557
g693
ag7
aa(lp1558
a(lp1559
g3
ag691
aa(lp1560
a(lp1561
g445
aa(lp1562
g9
aa(lp1563
g705
ag3
ag478
ag586
ag691
aa(lp1564
g3
aa(lp1565
g9
ag3
ag12
ag321
aa(lp1566
a(lp1567
g11
ag50
ag692
ag51
ag52
ag693
ag7
aa(lp1568
g914
ag693
aa(lp1569
g693
aa(lp1570
a(lp1571
g693
aa(lp1572
a(lp1573
g15
aa(lp1574
g693
aa(lp1575
g4
aa(lp1576
g121
ag691
aa(lp1577
g15
ag691
ag693
ag7
aa(lp1578
a(lp1579
g4
aa(lp1580
g273
aa(lp1581
a(lp1582
g3
ag57
aa(lp1583
g705
aa(lp1584
g121
ag693
aa(lp1585
a(lp1586
g520
aa(lp1587
a(lp1588
g705
ag781
ag782
ag3
ag94
aa(lp1589
g9
aS'dangerous_anthropogenic_interference'
p1590
ag3
aa(lp1591
a(lp1592
g455
ag23
aa(lp1593
a(lp1594
a(lp1595
g9
aa(lp1596
g18
aa(lp1597
a(lp1598
a(lp1599
a(lp1600
g15
ag9
aa(lp1601
g691
aa(lp1602
g50
ag7
aa(lp1603
g9
ag12
ag7
aa(lp1604
a(lp1605
g3
ag771
ag1013
ag153
aa(lp1606
g12
aa(lp1607
g9
ag693
aa(lp1608
g705
ag693
ag23
aa(lp1609
g9
ag3
ag778
ag43
ag54
ag45
aa(lp1610
g50
aa(lp1611
g18
ag15
ag797
ag798
aa(lp1612
g445
ag137
ag312
aa(lp1613
a(lp1614
g1365
ag15
ag223
aS'national_adaptation_programmes_of_action'
p1615
aa(lp1616
a(lp1617
g15
aa(lp1618
g15
ag1023
aa(lp1619
g1023
ag705
ag696
aa(lp1620
g71
aa(lp1621
g68
aa(lp1622
a(lp1623
g801
aa(lp1624
g914
ag726
aa(lp1625
a(lp1626
g100
aa(lp1627
g705
aa(lp1628
g317
aa(lp1629
g317
aa(lp1630
a(lp1631
g3
ag54
aa(lp1632
g47
aa(lp1633
g792
aa(lp1634
g709
aa(lp1635
g887
ag94
ag733
ag693
aa(lp1636
a(lp1637
g333
aa(lp1638
g801
ag695
aa(lp1639
g726
ag801
aa(lp1640
g726
aa(lp1641
g695
aa(lp1642
g333
ag801
ag7
aa(lp1643
g695
aa(lp1644
g1365
aa(lp1645
g705
aa(lp1646
a(lp1647
a(lp1648
g1365
ag15
ag223
aa(lp1649
g374
aa(lp1650
g705
ag121
aa(lp1651
g223
aa(lp1652
g223
aa(lp1653
g374
ag47
ag693
aa(lp1654
a(lp1655
a(lp1656
a(lp1657
a(lp1658
g68
ag3
aa(lp1659
g71
aa(lp1660
a(lp1661
a(lp1662
a(lp1663
g705
aa(lp1664
a(lp1665
g705
aa(lp1666
a(lp1667
g1365
ag223
aa(lp1668
g1365
ag223
aa(lp1669
g1365
ag223
aa(lp1670
a(lp1671
a(lp1672
g705
aa(lp1673
g121
aa(lp1674
a(lp1675
a(lp1676
g586
aa(lp1677
a(lp1678
a(lp1679
g47
ag693
aa(lp1680
a(lp1681
g121
ag103
aa(lp1682
a(lp1683
g705
aa(lp1684
g846
aa(lp1685
a(lp1686
a(lp1687
g705
ag639
ag887
ag94
ag693
aa(lp1688
a(lp1689
a(lp1690
g693
aa(lp1691
g223
aa(lp1692
a(lp1693
a(lp1694
g223
aa(lp1695
g1110
aa(lp1696
g705
ag12
ag7
aa(lp1697
g705
ag9
ag887
ag94
ag693
aa(lp1698
a(lp1699
g68
aa(lp1700
g726
aa(lp1701
g693
aa(lp1702
g693
aa(lp1703
g137
ag693
aa(lp1704
g333
ag726
ag691
ag7
aa(lp1705
g693
aa(lp1706
g801
ag695
aa(lp1707
g79
ag1365
ag11
ag15
ag223
aa(lp1708
a(lp1709
a(lp1710
g317
aa(lp1711
a(lp1712
a(lp1713
g223
aa(lp1714
g586
aa(lp1715
g121
aa(lp1716
S'gender'
p1717
aa(lp1718
a(lp1719
g1110
aa(lp1720
g586
aa(lp1721
g914
ag47
ag693
aa(lp1722
g1110
ag887
ag94
ag733
aa(lp1723
a(lp1724
g693
aa(lp1725
g726
aa(lp1726
g914
aa(lp1727
a(lp1728
g866
aa(lp1729
g1365
ag223
aa(lp1730
g15
ag223
aa(lp1731
g914
ag693
aa(lp1732
a(lp1733
g317
ag3
ag43
ag693
ag7
ag153
aa(lp1734
g781
ag782
ag3
ag54
aa(lp1735
a(lp1736
a(lp1737
a(lp1738
g577
ag1365
ag223
aa(lp1739
a(lp1740
a(lp1741
a(lp1742
g693
aa(lp1743
a(lp1744
g914
ag3
aa(lp1745
g801
ag103
aa(lp1746
g68
aa(lp1747
a(lp1748
g693
aa(lp1749
a(lp1750
a(lp1751
a(lp1752
g18
ag455
ag121
ag9
ag7
aa(lp1753
g9
aa(lp1754
g333
ag7
aa(lp1755
a(lp1756
g121
aa(lp1757
a(lp1758
g47
aa(lp1759
g3
ag693
aa(lp1760
g1365
ag15
ag223
ag455
ag103
ag7
aa(lp1761
a(lp1762
a(lp1763
a(lp1764
a(lp1765
g726
aa(lp1766
g914
ag3
aa(lp1767
a(lp1768
a(lp1769
g1365
ag15
ag223
aa(lp1770
a(lp1771
a(lp1772
g693
aa(lp1773
g455
aa(lp1774
g9
ag3
aa(lp1775
g705
ag3
ag12
aa(lp1776
g7
aa(lp1777
g223
ag705
ag9
ag40
ag3
ag12
ag45
aa(lp1778
g969
ag18
ag223
ag121
aa(lp1779
a(lp1780
g261
ag487
ag95
ag54
ag12
ag55
aa(lp1781
g455
ag54
ag45
aa(lp1782
g15
ag705
ag586
ag370
ag100
aa(lp1783
g223
ag705
ag696
ag445
ag455
ag95
ag12
ag321
aa(lp1784
g705
ag1110
ag54
ag100
aa(lp1785
g121
ag100
aa(lp1786
g1365
ag11
ag15
ag223
aa(lp1787
g914
ag3
ag693
aa(lp1788
a(lp1789
g726
aa(lp1790
a(lp1791
a(lp1792
g691
aa(lp1793
g866
ag11
ag50
ag317
ag9
ag781
ag782
ag4
ag12
aa(lp1794
g692
ag51
ag52
ag693
aa(lp1795
g47
ag1042
ag733
ag54
aa(lp1796
g445
ag667
aS'food_security'
p1797
ag3
aa(lp1798
a(lp1799
g705
ag3
ag478
ag586
ag691
aa(lp1800
g3
aa(lp1801
g9
ag3
ag12
ag321
aa(lp1802
g11
ag914
ag693
ag7
aa(lp1803
g3
aa(lp1804
g693
aa(lp1805
a(lp1806
g693
aa(lp1807
g121
aa(lp1808
g54
ag12
aa(lp1809
g3
ag639
aa(lp1810
g47
ag7
aa(lp1811
g121
ag43
ag520
aa(lp1812
g50
ag455
ag3
aa(lp1813
g54
ag100
aa(lp1814
g121
aa(lp1815
g333
ag121
ag103
ag54
aa(lp1816
a(lp1817
g3
ag706
aa(lp1818
a(lp1819
g705
aa(lp1820
a(lp1821
g3
aa(lp1822
g71
aa(lp1823
g100
ag562
ag12
ag7
aS'mitigation_and_adaptation'
p1824
aa(lp1825
g866
ag18
ag15
ag3
ag706
aa(lp1826
g223
ag1615
ag1824
aa(lp1827
a(lp1828
a(lp1829
g577
aa(lp1830
a(lp1831
a(lp1832
g577
ag11
ag50
ag781
ag782
ag793
ag51
ag52
ag693
aa(lp1833
g71
ag705
ag1408
ag455
ag312
ag693
aa(lp1834
a(lp1835
g9
ag792
ag125
ag793
ag12
aa(lp1836
g15
ag53
ag797
ag41
ag706
aa(lp1837
g3
ag53
aa(lp1838
a(lp1839
g577
aa(lp1840
g18
ag11
ag223
aa(lp1841
g18
ag11
ag9
aa(lp1842
g18
ag11
ag15
ag223
aa(lp1843
g1462
ag79
ag18
ag11
ag15
ag1463
ag7
aa(lp1844
g333
ag7
aa(lp1845
a(lp1846
g43
aa(lp1847
g18
aa(lp1848
a(lp1849
a(lp1850
g15
aa(lp1851
g887
ag94
ag693
aa(lp1852
a(lp1853
g317
ag54
aa(lp1854
g705
aa(lp1855
a(lp1856
g866
ag223
ag317
ag705
ag121
ag692
ag51
ag52
ag43
ag693
ag54
aa(lp1857
g137
ag312
aa(lp1858
a(lp1859
g54
aa(lp1860
a(lp1861
a(lp1862
g15
aa(lp1863
g1365
ag223
aS'importance_of_adaptation'
p1864
ag1615
aS'poverty_eradication'
p1865
ag121
aa(lp1866
g1365
ag15
ag223
aa(lp1867
a(lp1868
a(lp1869
a(lp1870
g1042
aa(lp1871
g9
ag3
ag691
ag95
ag54
aa(lp1872
g705
aa(lp1873
g1865
ag121
ag691
ag1824
aa(lp1874
g103
ag95
ag96
aa(lp1875
a(lp1876
a(lp1877
g71
ag693
aa(lp1878
a(lp1879
g866
ag50
ag692
ag51
ag52
ag693
aa(lp1880
g866
ag11
ag317
ag693
aa(lp1881
a(lp1882
a(lp1883
g1110
ag899
aa(lp1884
g11
aa(lp1885
g53
aa(lp1886
g846
ag1128
ag1408
ag693
aa(lp1887
g846
ag705
ag137
ag693
ag41
aa(lp1888
g54
aa(lp1889
a(lp1890
a(lp1891
g333
aa(lp1892
g866
aa(lp1893
a(lp1894
g1462
ag18
ag11
ag15
ag1463
aa(lp1895
g1365
ag18
ag15
ag223
aa(lp1896
g18
ag11
ag15
aa(lp1897
g11
ag54
aa(lp1898
g781
ag782
ag54
ag7
aa(lp1899
g577
ag11
ag693
aa(lp1900
g866
ag11
ag50
ag317
ag781
ag782
ag54
ag7
aa(lp1901
g577
ag692
ag51
ag52
ag693
aa(lp1902
a(lp1903
a(lp1904
g705
ag1110
ag887
ag94
aa(lp1905
g705
ag693
aa(lp1906
g3
ag673
aa(lp1907
g792
ag781
ag782
aa(lp1908
a(lp1909
g11
aa(lp1910
g9
ag7
aa(lp1911
a(lp1912
a(lp1913
g54
aa(lp1914
a(lp1915
a(lp1916
g577
ag18
ag693
aa(lp1917
g223
aa(lp1918
g18
ag11
ag15
aa(lp1919
g1462
ag11
ag15
ag223
ag1463
aa(lp1920
g1365
ag15
ag223
ag1615
ag7
aa(lp1921
g18
ag11
ag7
aa(lp1922
g866
ag3
aa(lp1923
a(lp1924
a(lp1925
a(lp1926
g455
aa(lp1927
g18
ag15
ag223
ag95
ag54
aa(lp1928
g50
ag9
ag40
ag103
ag12
ag7
ag55
aa(lp1929
g455
ag121
ag9
ag100
ag189
aa(lp1930
g95
ag96
ag56
aa(lp1931
g121
aa(lp1932
g455
ag9
aa(lp1933
a(lp1934
g1864
ag3
ag691
ag95
aa(lp1935
a(lp1936
g137
aa(lp1937
g1590
ag3
ag23
aa(lp1938
g15
ag23
aa(lp1939
g3
aa(lp1940
g333
ag12
aa(lp1941
g45
aa(lp1942
g705
aa(lp1943
g3
ag691
aa(lp1944
a(lp1945
g866
aa(lp1946
g577
ag3
aa(lp1947
a(lp1948
g121
aa(lp1949
g866
ag577
ag121
aa(lp1950
g705
ag121
ag54
aa(lp1951
g121
ag9
aa(lp1952
g455
ag95
ag96
aa(lp1953
a(lp1954
g1365
ag15
ag455
ag9
ag54
ag7
ag717
aa(lp1955
g705
aa(lp1956
g3
aa(lp1957
g3
aa(lp1958
g3
ag54
aa(lp1959
g9
ag3
ag12
ag7
aa(lp1960
g137
aa(lp1961
g1797
ag121
ag95
ag7
aa(lp1962
g121
ag95
ag54
aa(lp1963
g705
ag9
ag137
ag43
aa(lp1964
g317
aa(lp1965
g577
aa(lp1966
g333
aa(lp1967
g866
ag15
aa(lp1968
g866
aa(lp1969
g866
aa(lp1970
a(lp1971
g866
ag11
aa(lp1972
a(lp1973
g1462
ag1463
ag705
ag691
ag692
ag51
ag52
ag693
aa(lp1974
g445
ag667
ag1797
ag121
ag4
aa(lp1975
g1590
ag40
aa(lp1976
g705
ag3
ag478
ag586
ag691
aa(lp1977
g3
aa(lp1978
g9
ag3
ag12
ag321
aa(lp1979
g914
ag693
aa(lp1980
g693
aa(lp1981
g121
ag693
aa(lp1982
a(lp1983
g1865
ag9
ag103
aa(lp1984
g1462
ag1463
aa(lp1985
g312
aa(lp1986
a(lp1987
a(lp1988
g12
aa(lp1989
g866
ag223
ag705
ag7
aa(lp1990
g705
ag887
ag94
aa(lp1991
g866
aa(lp1992
a(lp1993
a(lp1994
a(lp1995
a(lp1996
g54
aa(lp1997
g50
ag54
aa(lp1998
a(lp1999
g7
aa(lp2000
g866
aa(lp2001
g3
aa(lp2002
a(lp2003
a(lp2004
g866
aa(lp2005
a(lp2006
a(lp2007
g708
ag121
aa(lp2008
a(lp2009
g121
aa(lp2010
a(lp2011
g3
aa(lp2012
g3
ag44
ag55
ag771
ag1013
aa(lp2013
a(lp2014
g103
aa(lp2015
g866
ag50
ag317
ag9
ag693
ag12
aa(lp2016
g693
aa(lp2017
g693
aa(lp2018
g778
aa(lp2019
a(lp2020
g333
ag12
aS'technology_development'
p2021
ag86
ag7
aa(lp2022
a(lp2023
g797
ag798
aa(lp2024
a(lp2025
g693
aa(lp2026
g9
aa(lp2027
g1462
ag11
ag1463
ag7
aa(lp2028
g18
ag15
ag223
ag374
aa(lp2029
a(lp2030
g18
ag9
ag527
aa(lp2031
a(lp2032
a(lp2033
g3
ag693
aa(lp2034
a(lp2035
g866
ag3
aa(lp2036
g15
ag223
aa(lp2037
a(lp2038
g693
aa(lp2039
g866
aa(lp2040
g866
ag693
ag7
aa(lp2041
g3
ag54
aa(lp2042
g188
ag9
ag54
ag7
aa(lp2043
g54
aa(lp2044
a(lp2045
a(lp2046
a(lp2047
g317
ag1717
ag121
ag7
aa(lp2048
a(lp2049
g693
aa(lp2050
a(lp2051
g778
aa(lp2052
g12
ag7
aa(lp2053
g18
ag333
ag797
ag798
aa(lp2054
g866
ag15
aa(lp2055
a(lp2056
g18
ag9
aa(lp2057
g18
aa(lp2058
g15
aa(lp2059
g1462
ag15
ag223
ag1463
ag95
ag562
ag7
aa(lp2060
g1462
ag15
ag1463
aa(lp2061
g577
ag705
aa(lp2062
g693
ag7
aa(lp2063
g1462
ag866
ag1463
ag705
ag693
ag12
aa(lp2064
g3
aa(lp2065
g3
aa(lp2066
g15
ag705
ag121
aa(lp2067
g705
aS'indigenous_peoples'
p2068
ag43
ag100
ag189
aa(lp2069
a(lp2070
a(lp2071
g866
ag223
aa(lp2072
g18
aa(lp2073
g9
ag691
aa(lp2074
g846
aa(lp2075
a(lp2076
g693
aa(lp2077
a(lp2078
g44
ag12
ag1824
aa(lp2079
g54
aa(lp2080
a(lp2081
g18
ag7
aa(lp2082
g12
ag7
aa(lp2083
g1128
aa(lp2084
g1462
ag15
ag1463
ag7
aa(lp2085
g577
aa(lp2086
g1462
ag866
ag577
ag1463
ag693
aa(lp2087
g577
ag3
ag1013
aa(lp2088
a(lp2089
g866
aa(lp2090
a(lp2091
a(lp2092
g7
aa(lp2093
g18
aa(lp2094
g1462
ag15
ag1463
ag455
ag121
ag9
aa(lp2095
g9
ag3
ag45
aa(lp2096
g18
ag15
aa(lp2097
a(lp2098
a(lp2099
g693
aa(lp2100
g43
ag693
aa(lp2101
g693
aa(lp2102
g577
aa(lp2103
g1462
ag866
ag1463
ag693
ag7
aa(lp2104
g693
aa(lp2105
a(lp2106
g15
ag1023
ag705
ag9
aa(lp2107
g9
aa(lp2108
g866
ag18
ag333
aa(lp2109
g223
aa(lp2110
g7
aa(lp2111
g1462
ag866
ag1463
ag9
ag7
aa(lp2112
g121
aa(lp2113
g333
ag12
ag7
aa(lp2114
g693
aa(lp2115
g693
aa(lp2116
g693
aa(lp2117
g18
ag11
ag15
aa(lp2118
g15
aa(lp2119
g1128
ag1110
ag887
ag94
ag43
aa(lp2120
g9
ag3
aa(lp2121
g1462
ag15
ag1463
ag9
aa(lp2122
g866
aa(lp2123
g866
ag333
aa(lp2124
g3
aa(lp2125
a(lp2126
a(lp2127
a(lp2128
a(lp2129
g693
aa(lp2130
g15
aa(lp2131
g3
ag55
ag1013
aa(lp2132
a(lp2133
g50
aa(lp2134
a(lp2135
g43
aa(lp2136
a(lp2137
g54
aa(lp2138
a(lp2139
a(lp2140
a(lp2141
a(lp2142
a(lp2143
a(lp2144
a(lp2145
g1042
ag693
aa(lp2146
g47
ag673
aa(lp2147
a(lp2148
a(lp2149
a(lp2150
g1462
ag1463
ag121
aa(lp2151
g9
ag3
ag410
aa(lp2152
a(lp2153
g15
ag9
aa(lp2154
g50
ag71
ag705
ag3
ag95
ag54
ag100
ag96
aa(lp2155
g427
ag410
ag597
ag100
aa(lp2156
g445
ag121
aa(lp2157
g1865
ag455
ag1797
ag3
ag321
aa(lp2158
g1462
ag1365
ag15
ag1463
ag261
ag3
ag41
aa(lp2159
g9
ag95
ag1824
aa(lp2160
a(lp2161
g15
aa(lp2162
g866
aa(lp2163
a(lp2164
g1462
ag1463
ag374
aa(lp2165
a(lp2166
g15
ag223
aa(lp2167
g15
ag917
aa(lp2168
g866
ag374
ag705
ag691
aa(lp2169
g1462
ag1463
ag9
ag12
aa(lp2170
g9
ag12
ag86
aa(lp2171
g455
ag121
ag9
ag3
ag586
ag487
ag597
ag100
ag12
ag7
ag45
ag1824
aa(lp2172
g121
ag9
ag370
ag12
ag86
aa(lp2173
g455
ag9
ag427
ag3
ag917
ag54
ag12
ag2021
ag86
ag7
aa(lp2174
g223
ag261
ag9
ag1447
ag487
ag54
ag100
ag189
ag273
ag12
ag86
ag7
ag57
aa(lp2175
g12
aa(lp2176
g261
ag705
aa(lp2177
g223
ag3
ag103
ag410
ag487
ag7
aa(lp2178
g1462
ag1463
ag708
ag9
ag586
ag100
ag273
ag12
ag7
aa(lp2179
g15
ag223
ag3
ag41
ag12
ag717
ag1824
aa(lp2180
a(lp2181
a(lp2182
g1462
ag1365
ag15
ag223
ag1463
ag326
aa(lp2183
a(lp2184
a(lp2185
g691
aa(lp2186
g1462
ag18
ag11
ag223
ag1463
ag50
ag317
ag705
ag692
ag51
ag52
ag693
ag7
aa(lp2187
a(lp2188
g121
aa(lp2189
g445
ag1797
ag121
ag4
aa(lp2190
g40
aa(lp2191
g3
ag586
ag691
aa(lp2192
g3
aa(lp2193
g9
ag3
ag12
ag321
aa(lp2194
g693
aa(lp2195
g121
ag693
aa(lp2196
g1865
ag9
ag103
aa(lp2197
g1462
ag15
ag223
ag1463
ag705
ag887
ag94
ag693
aa(lp2198
g11
ag705
ag693
aa(lp2199
g778
aa(lp2200
g3
ag44
aa(lp2201
g9
ag7
aa(lp2202
a(lp2203
g9
aa(lp2204
g866
ag223
ag705
ag3
ag7
aa(lp2205
g223
ag3
ag673
ag692
ag51
ag52
ag693
aS'maritime_transport'
p2206
aa(lp2207
g445
aa(lp2208
a(lp2209
g103
ag7
aa(lp2210
g121
ag586
aa(lp2211
g15
ag1615
ag705
ag7
ag717
aa(lp2212
g691
aa(lp2213
g50
ag54
aa(lp2214
a(lp2215
a(lp2216
a(lp2217
g778
ag693
ag23
aa(lp2218
a(lp2219
g3
ag771
ag1013
ag2206
ag23
aa(lp2220
g797
aa(lp2221
a(lp2222
g9
ag23
aa(lp2223
g777
ag9
ag717
aa(lp2224
g1365
ag223
aa(lp2225
g1365
ag223
ag23
aa(lp2226
g3
ag673
aa(lp2227
g691
ag54
aa(lp2228
g866
ag11
ag50
ag317
ag692
ag51
ag52
ag693
ag7
aa(lp2229
g866
aa(lp2230
g866
ag23
aa(lp2231
g1462
ag18
ag11
ag15
ag1463
aa(lp2232
g18
ag223
ag23
aa(lp2233
g18
ag15
aa(lp2234
g18
ag11
ag15
aa(lp2235
g18
aa(lp2236
a(lp2237
a(lp2238
a(lp2239
g577
ag3
aa(lp2240
a(lp2241
a(lp2242
g9
aa(lp2243
a(lp2244
g9
ag86
ag7
aa(lp2245
g562
ag12
aa(lp2246
a(lp2247
S'food'
p2248
ag188
ag312
ag43
aa(lp2249
g693
aa(lp2250
g797
aa(lp2251
g969
ag705
aa(lp2252
a(lp2253
g18
ag691
aa(lp2254
g866
ag11
ag705
ag121
ag7
ag706
aa(lp2255
g1865
ag9
ag100
ag189
aa(lp2256
g846
ag705
ag54
aa(lp2257
g846
ag705
ag47
ag100
ag189
ag96
ag55
ag57
aa(lp2258
a(lp2259
g121
ag777
ag54
aa(lp2260
g866
ag15
aa(lp2261
a(lp2262
a(lp2263
a(lp2264
g1462
ag18
ag11
ag1463
aa(lp2265
g12
ag7
aa(lp2266
g777
ag326
ag44
aa(lp2267
g41
ag44
ag321
aa(lp2268
g3
ag41
ag44
aa(lp2269
g41
ag44
aa(lp2270
g41
ag44
ag54
aa(lp2271
g667
ag121
aa(lp2272
g9
aa(lp2273
g667
ag777
ag2206
aa(lp2274
g15
ag9
ag370
aa(lp2275
g2248
ag667
ag2068
aa(lp2276
g1408
aa(lp2277
g121
ag777
aa(lp2278
a(lp2279
g18
ag1864
ag9
ag7
ag717
aa(lp2280
g846
ag47
ag370
aa(lp2281
a(lp2282
g866
ag223
ag50
ag317
ag705
ag121
ag597
ag12
ag7
ag706
aa(lp2283
g374
aa(lp2284
g56
aa(lp2285
g15
ag1864
ag7
ag1824
aa(lp2286
g121
aa(lp2287
g11
ag71
ag705
ag54
aa(lp2288
g15
ag9
ag23
aa(lp2289
g1864
ag9
ag12
aa(lp2290
g121
ag312
aa(lp2291
g1365
ag18
ag15
ag223
ag1615
ag9
aa(lp2292
g866
ag15
aa(lp2293
a(lp2294
g7
aa(lp2295
a(lp2296
g3
aa(lp2297
g96
aa(lp2298
g47
ag96
ag86
aa(lp2299
g43
ag189
ag12
ag55
aa(lp2300
g121
ag12
aa(lp2301
g121
ag40
aa(lp2302
g54
ag12
ag55
aa(lp2303
g95
ag54
ag96
ag12
ag2021
aa(lp2304
g693
aS'post-2012'
p2305
aa(lp2306
g11
ag223
ag317
ag705
ag778
ag693
ag7
aa(lp2307
g121
ag9
ag597
ag273
ag96
ag12
aa(lp2308
g12
aa(lp2309
g95
ag56
ag23
aa(lp2310
a(lp2311
g1462
ag18
ag11
ag15
ag1463
aa(lp2312
g705
ag792
ag125
ag96
ag56
aa(lp2313
a(lp2314
a(lp2315
g7
aa(lp2316
g1365
ag18
ag15
ag223
ag1615
aa(lp2317
g887
ag94
ag733
ag693
aa(lp2318
g693
aa(lp2319
g3
ag778
aa(lp2320
g12
ag7
aa(lp2321
g691
aa(lp2322
g705
ag887
ag94
ag778
ag693
ag7
aa(lp2323
g1128
ag705
aa(lp2324
g846
aa(lp2325
g1023
aS'international_transaction_log'
p2326
aa(lp2327
g7
aa(lp2328
g778
ag693
ag23
aa(lp2329
g866
ag333
aa(lp2330
a(lp2331
a(lp2332
a(lp2333
a(lp2334
a(lp2335
a(lp2336
a(lp2337
S'building_blocks'
p2338
aa(lp2339
a(lp2340
a(lp2341
a(lp2342
a(lp2343
a(lp2344
g691
aa(lp2345
g11
ag223
ag317
ag778
ag693
ag7
ag706
aa(lp2346
a(lp2347
a(lp2348
g1023
aa(lp2349
g2326
aa(lp2350
g778
ag693
aa(lp2351
g43
ag693
ag23
aa(lp2352
g40
ag95
ag96
ag12
aa(lp2353
g95
ag54
ag12
aa(lp2354
g121
aa(lp2355
a(lp2356
a(lp2357
a(lp2358
a(lp2359
g9
ag12
ag7
ag45
aa(lp2360
a(lp2361
a(lp2362
a(lp2363
g11
ag223
ag7
aa(lp2364
a(lp2365
g7
aa(lp2366
g15
ag223
ag1615
aa(lp2367
a(lp2368
a(lp2369
g778
ag693
aa(lp2370
a(lp2371
g3
ag55
ag1013
aa(lp2372
a(lp2373
a(lp2374
g7
aa(lp2375
g50
aa(lp2376
g797
aa(lp2377
a(lp2378
a(lp2379
a(lp2380
g15
aa(lp2381
g577
aa(lp2382
g9
aa(lp2383
g866
aa(lp2384
a(lp2385
a(lp2386
g3
ag673
aa(lp2387
g18
ag11
aa(lp2388
g1462
ag11
ag15
ag1463
aa(lp2389
a(lp2390
a(lp2391
a(lp2392
g11
ag223
aa(lp2393
g15
ag223
aa(lp2394
a(lp2395
g103
aa(lp2396
g777
ag32
aa(lp2397
g95
ag54
ag12
aa(lp2398
g455
ag3
aa(lp2399
a(lp2400
g121
ag717
aa(lp2401
a(lp2402
g9
aa(lp2403
g1797
ag3
ag45
ag321
aa(lp2404
a(lp2405
g1864
ag455
ag3
aa(lp2406
g312
aa(lp2407
a(lp2408
g15
ag1865
ag121
aa(lp2409
g586
aa(lp2410
g9
aa(lp2411
g121
ag9
ag103
ag7
ag1824
aa(lp2412
g1865
ag121
ag3
aa(lp2413
g50
ag54
aa(lp2414
g188
aa(lp2415
g3
aa(lp2416
g639
aa(lp2417
a(lp2418
g3
aS'historical_responsibility'
p2419
ag7
aa(lp2420
g455
ag121
ag9
ag3
ag370
ag96
ag7
ag321
aa(lp2421
g708
ag312
ag321
aa(lp2422
g121
ag54
aa(lp2423
g23
aa(lp2424
g639
aa(lp2425
g121
aa(lp2426
g121
aa(lp2427
a(lp2428
g777
aa(lp2429
g121
aa(lp2430
g44
aa(lp2431
g2248
ag777
aa(lp2432
g7
aa(lp2433
g969
ag9
aa(lp2434
g969
ag1865
aa(lp2435
g15
ag777
ag3
ag43
ag487
aa(lp2436
g1865
ag121
ag12
aa(lp2437
g121
ag3
ag95
ag56
aa(lp2438
g2305
ag12
aa(lp2439
g9
aa(lp2440
g7
aa(lp2441
g705
ag12
ag1824
aa(lp2442
g9
ag410
aa(lp2443
g705
ag9
ag467
ag43
ag273
ag12
ag7
aa(lp2444
g705
ag410
aa(lp2445
g15
ag223
ag3
ag273
ag12
ag7
aa(lp2446
g54
aa(lp2447
g705
ag321
aa(lp2448
g3
ag54
ag12
ag56
aa(lp2449
g9
ag12
aa(lp2450
g9
ag427
ag3
ag137
ag312
ag370
ag100
aa(lp2451
g705
ag3
ag52
ag12
aa(lp2452
g50
ag3
aa(lp2453
g23
aa(lp2454
g223
ag2305
ag7
aa(lp2455
g691
aa(lp2456
g969
ag705
ag3
ag639
aa(lp2457
g18
ag11
ag223
ag7
aa(lp2458
a(lp2459
g445
ag1797
ag121
ag4
aa(lp2460
g40
aa(lp2461
g705
ag3
ag586
ag691
aa(lp2462
g691
aa(lp2463
g1462
ag969
ag15
ag223
ag1463
ag691
ag692
ag51
ag52
ag693
ag7
aa(lp2464
g705
ag887
ag94
aa(lp2465
g11
ag15
ag223
ag50
ag317
ag691
ag693
ag2305
ag7
aS'buenos_aires_programme_of_work'
p2466
aS'adaptation_and_response_measures'
p2467
aa(lp2468
g1462
ag1463
aa(lp2469
g691
ag54
ag597
ag96
ag12
ag86
aa(lp2470
g9
aa(lp2471
g455
ag121
ag691
ag54
ag96
ag12
aa(lp2472
g18
ag15
aa(lp2473
g223
ag317
ag9
ag12
ag706
aa(lp2474
g705
ag7
aa(lp2475
g317
ag691
aa(lp2476
g3
aa(lp2477
a(lp2478
g691
aa(lp2479
g3
aa(lp2480
a(lp2481
g3
aa(lp2482
g18
ag7
aa(lp2483
a(lp2484
g969
ag705
ag639
aa(lp2485
g691
aa(lp2486
g969
aa(lp2487
g3
ag53
ag95
ag96
aa(lp2488
g778
aa(lp2489
g693
aa(lp2490
g3
ag55
ag1013
ag2206
aa(lp2491
g2466
ag2467
aa(lp2492
a(lp2493
g577
aa(lp2494
a(lp2495
a(lp2496
g866
aa(lp2497
a(lp2498
a(lp2499
g317
aa(lp2500
g18
aa(lp2501
a(lp2502
g11
ag691
ag7
aa(lp2503
g1462
ag11
ag1463
aa(lp2504
g969
ag18
ag11
ag15
ag223
aa(lp2505
g11
ag370
aa(lp2506
g2466
ag2467
aa(lp2507
g1365
ag223
ag1615
aa(lp2508
a(lp2509
g969
ag18
ag11
ag15
ag691
aa(lp2510
g969
ag18
ag11
aa(lp2511
g562
aa(lp2512
a(lp2513
g797
aa(lp2514
g121
ag137
ag312
ag54
aa(lp2515
a(lp2516
g18
ag2248
ag188
ag1797
ag777
ag23
aa(lp2517
g1128
ag54
aa(lp2518
a(lp2519
g705
aa(lp2520
a(lp2521
g50
aa(lp2522
g12
ag7
aa(lp2523
g12
ag7
aa(lp2524
g969
ag11
ag15
ag223
ag705
aa(lp2525
a(lp2526
g706
aa(lp2527
g691
aa(lp2528
g18
ag15
aa(lp2529
g11
ag317
ag705
ag639
ag691
ag693
ag7
aa(lp2530
g121
ag103
ag639
ag2305
aa(lp2531
a(lp2532
g693
aa(lp2533
g705
ag7
aa(lp2534
g1023
ag705
aa(lp2535
g15
ag705
aa(lp2536
g705
ag1110
ag586
ag96
ag56
aa(lp2537
g23
aa(lp2538
g1023
ag705
aa(lp2539
g846
ag586
ag100
ag189
aa(lp2540
a(lp2541
a(lp2542
g639
aa(lp2543
g691
aa(lp2544
g15
ag317
aa(lp2545
g1462
ag11
ag1463
ag54
ag109
ag56
aa(lp2546
g12
ag7
aa(lp2547
a(lp2548
g121
ag23
ag520
ag706
aa(lp2549
g3
ag693
aa(lp2550
g693
aa(lp2551
g1365
ag223
aa(lp2552
g691
aa(lp2553
g11
ag705
ag639
ag691
ag7
ag2326
aS'privileges_and_immunities'
p2554
aa(lp2555
g705
ag691
ag2554
aa(lp2556
g691
aa(lp2557
g705
ag691
aa(lp2558
g705
ag12
ag7
aa(lp2559
g705
aa(lp2560
g846
ag71
ag96
ag56
aa(lp2561
g705
aa(lp2562
a(lp2563
g317
aa(lp2564
g2326
aa(lp2565
g23
aa(lp2566
g15
ag71
ag705
aa(lp2567
g705
aa(lp2568
g71
ag705
aa(lp2569
g3
ag639
ag478
ag92
aa(lp2570
a(lp2571
g797
aa(lp2572
g1462
ag969
ag11
ag1463
aa(lp2573
a(lp2574
g7
aa(lp2575
g639
ag2326
aa(lp2576
g11
ag705
ag7
ag2326
aa(lp2577
g9
aS'long-term_cooperation'
p2578
aa(lp2579
a(lp2580
a(lp2581
g846
ag705
aa(lp2582
g696
aa(lp2583
g317
aa(lp2584
g1462
ag969
ag11
ag1463
aa(lp2585
g1462
ag1463
aa(lp2586
g11
ag15
ag370
aa(lp2587
g18
aa(lp2588
g23
aa(lp2589
g79
ag969
ag11
aa(lp2590
g2326
aa(lp2591
a(lp2592
g223
ag1128
ag705
ag1110
ag125
aa(lp2593
a(lp2594
a(lp2595
g7
aa(lp2596
g639
ag55
aa(lp2597
g223
ag705
aa(lp2598
a(lp2599
g11
ag705
ag639
ag691
ag7
ag2326
ag2554
aa(lp2600
g691
ag2554
aa(lp2601
a(lp2602
g705
ag691
ag2554
aa(lp2603
a(lp2604
g639
aa(lp2605
a(lp2606
g846
ag705
ag2305
aa(lp2607
a(lp2608
g969
ag11
aa(lp2609
g691
ag2326
aa(lp2610
g18
ag9
ag86
aa(lp2611
g705
aa(lp2612
g693
aa(lp2613
g3
ag693
aa(lp2614
a(lp2615
a(lp2616
g12
ag7
aa(lp2617
g11
ag639
ag691
ag693
ag2326
aa(lp2618
a(lp2619
g11
ag705
ag3
ag639
ag691
ag7
ag2206
ag2554
aa(lp2620
a(lp2621
g691
ag2554
aa(lp2622
g639
aa(lp2623
g15
ag705
ag1110
aa(lp2624
a(lp2625
a(lp2626
a(lp2627
g3
ag1013
ag2206
aa(lp2628
g969
ag11
aa(lp2629
g969
aa(lp2630
a(lp2631
g1462
ag1463
aa(lp2632
g18
ag12
aa(lp2633
g969
ag18
ag11
ag15
aa(lp2634
g969
ag705
ag121
ag717
aa(lp2635
g969
ag846
ag705
ag586
aa(lp2636
g273
ag12
ag7
aa(lp2637
g969
ag15
ag705
aa(lp2638
a(lp2639
g639
aa(lp2640
g11
ag317
ag639
ag691
ag7
aa(lp2641
g577
aa(lp2642
a(lp2643
g2554
aa(lp2644
g691
aa(lp2645
g969
ag11
ag15
aa(lp2646
a(lp2647
g18
aa(lp2648
g1462
ag1463
aa(lp2649
g705
ag3
aa(lp2650
g778
aa(lp2651
g3
ag55
ag1013
ag2206
ag23
aa(lp2652
g121
aa(lp2653
g9
ag7
aa(lp2654
a(lp2655
g3
aa(lp2656
a(lp2657
a(lp2658
a(lp2659
a(lp2660
a(lp2661
a(lp2662
a(lp2663
g705
ag639
aa(lp2664
g597
aa(lp2665
g12
aa(lp2666
a(lp2667
g326
aa(lp2668
g18
ag9
ag3
ag586
ag137
ag312
ag4
ag321
aa(lp2669
g15
ag705
ag691
ag2305
ag7
aa(lp2670
g3
ag691
ag12
aa(lp2671
a(lp2672
g705
aa(lp2673
g705
ag455
ag7
aa(lp2674
g1462
ag1365
ag969
ag15
ag223
ag1463
aa(lp2675
g969
ag18
ag11
ag43
ag189
aa(lp2676
a(lp2677
g3
ag691
aa(lp2678
g103
ag639
ag2305
aa(lp2679
g3
ag2305
aa(lp2680
g639
aa(lp2681
g9
ag3
ag95
ag12
ag2021
aa(lp2682
g846
ag705
aa(lp2683
a(lp2684
g639
ag92
aa(lp2685
a(lp2686
g705
ag639
aa(lp2687
a(lp2688
g639
aa(lp2689
g15
ag705
ag691
ag2305
ag7
aa(lp2690
g1365
ag15
ag223
ag708
aa(lp2691
g188
ag3
aa(lp2692
g3
aa(lp2693
g188
ag1797
ag121
aa(lp2694
g705
ag121
ag586
ag899
ag370
aa(lp2695
g15
ag1865
ag121
ag1824
aa(lp2696
g50
ag3
ag95
aa(lp2697
g487
aa(lp2698
g3
ag103
ag2305
aa(lp2699
g121
ag3
ag103
ag639
aS'cooperative_action'
p2700
ag96
ag12
aa(lp2701
g455
ag3
ag691
ag312
aa(lp2702
g427
ag12
ag2021
ag7
ag45
aa(lp2703
g639
ag691
ag2305
aa(lp2704
g9
ag2700
ag12
aa(lp2705
g92
aa(lp2706
g223
ag321
aa(lp2707
a(lp2708
a(lp2709
g691
aa(lp2710
g691
aa(lp2711
g969
ag705
ag92
aa(lp2712
g11
ag7
aa(lp2713
g9
ag691
ag2700
aa(lp2714
g445
ag1797
ag121
ag4
aa(lp2715
g40
aa(lp2716
g705
ag3
ag586
ag691
aa(lp2717
g691
aa(lp2718
g1462
ag969
ag15
ag223
ag1463
ag691
ag692
ag51
ag52
ag693
ag7
aa(lp2719
g15
ag223
ag50
ag705
ag887
ag94
ag2305
ag2466
ag2467
aa(lp2720
g691
ag2305
aa(lp2721
g223
ag2021
aa(lp2722
a(lp2723
g639
ag2305
aa(lp2724
a(lp2725
g15
ag3
aS'sectoral_approaches'
p2726
aS'intellectual_property_rights'
p2727
ag12
aa(lp2728
g261
ag3
ag54
ag96
aa(lp2729
g969
ag18
ag691
aa(lp2730
g121
ag54
ag370
ag12
aa(lp2731
g223
ag705
ag427
ag691
ag7
aa(lp2732
g691
aa(lp2733
g2305
aa(lp2734
g705
ag7
aa(lp2735
g705
ag7
aa(lp2736
g50
ag23
aa(lp2737
a(lp2738
g3
ag673
ag691
aa(lp2739
g969
aa(lp2740
a(lp2741
g15
ag223
ag705
aa(lp2742
g7
ag92
aa(lp2743
a(lp2744
g969
ag223
ag705
ag691
ag92
aa(lp2745
a(lp2746
a(lp2747
g15
ag705
ag12
ag7
ag768
aa(lp2748
a(lp2749
g50
ag3
ag693
aa(lp2750
g706
aa(lp2751
g18
ag15
ag455
ag121
aa(lp2752
a(lp2753
g15
ag705
ag691
aa(lp2754
g3
ag47
ag673
aa(lp2755
a(lp2756
g47
aa(lp2757
g11
ag317
ag3
ag691
aa(lp2758
g53
ag4
aa(lp2759
g53
aa(lp2760
g3
ag95
aa(lp2761
g3
ag53
aa(lp2762
g3
ag2419
ag12
aa(lp2763
g3
ag693
ag56
aa(lp2764
g121
ag3
ag639
aa(lp2765
g188
ag3
aa(lp2766
g50
ag3
ag597
ag96
aa(lp2767
g709
ag705
ag3
ag53
aa(lp2768
g3
aa(lp2769
g2068
ag427
ag1447
aa(lp2770
g52
aa(lp2771
g797
ag44
aa(lp2772
a(lp2773
g705
ag125
aa(lp2774
a(lp2775
g50
aa(lp2776
g125
ag3
ag487
ag771
ag153
aa(lp2777
g11
aa(lp2778
g18
ag11
ag15
ag3
aa(lp2779
g18
ag15
ag95
ag12
aa(lp2780
g18
ag11
ag7
aa(lp2781
g317
aa(lp2782
a(lp2783
g1365
ag223
aa(lp2784
g18
ag527
aa(lp2785
a(lp2786
g2305
aa(lp2787
g969
ag11
ag639
ag691
ag7
ag2326
ag2554
aa(lp2788
g11
ag3
ag691
aa(lp2789
g969
ag18
ag15
ag705
ag520
aa(lp2790
g50
aa(lp2791
g705
ag691
aa(lp2792
a(lp2793
g705
ag2326
aa(lp2794
g2305
ag2554
aa(lp2795
g639
aa(lp2796
g326
aa(lp2797
g54
ag100
aa(lp2798
a(lp2799
a(lp2800
a(lp2801
g11
ag15
ag527
ag2727
ag12
ag2021
ag7
aa(lp2802
g18
ag11
ag103
ag1824
aa(lp2803
a(lp2804
g18
aa(lp2805
a(lp2806
a(lp2807
a(lp2808
g969
ag427
ag7
aa(lp2809
a(lp2810
g705
aa(lp2811
g705
aa(lp2812
a(lp2813
g705
ag52
ag96
aa(lp2814
g705
ag41
ag12
ag23
aa(lp2815
a(lp2816
g15
aa(lp2817
a(lp2818
g691
aa(lp2819
a(lp2820
g693
ag7
ag153
ag92
aa(lp2821
g3
ag586
aa(lp2822
g969
ag15
aa(lp2823
a(lp2824
g18
ag9
aa(lp2825
g705
aa(lp2826
g691
ag693
ag2726
aa(lp2827
a(lp2828
a(lp2829
a(lp2830
g92
aa(lp2831
g50
ag3
ag7
ag55
ag1013
ag2206
ag2554
aa(lp2832
a(lp2833
a(lp2834
g1128
aa(lp2835
g1128
aa(lp2836
g792
aa(lp2837
a(lp2838
g374
ag3
ag2305
ag1013
ag2206
ag153
aa(lp2839
g969
ag15
aa(lp2840
a(lp2841
a(lp2842
g705
ag693
ag92
aa(lp2843
a(lp2844
g223
ag705
aa(lp2845
g705
ag887
ag94
aa(lp2846
g705
ag12
ag23
aa(lp2847
g15
aa(lp2848
g18
ag11
aa(lp2849
g693
aa(lp2850
g2554
aa(lp2851
a(lp2852
a(lp2853
g7
aa(lp2854
a(lp2855
g11
ag317
ag7
ag2554
ag92
aa(lp2856
a(lp2857
g121
aa(lp2858
a(lp2859
a(lp2860
g3
aa(lp2861
a(lp2862
g3
aa(lp2863
a(lp2864
a(lp2865
a(lp2866
g18
ag317
aa(lp2867
g18
ag11
ag15
aa(lp2868
g1110
aa(lp2869
a(lp2870
g866
ag18
aa(lp2871
g2554
aa(lp2872
a(lp2873
a(lp2874
g18
ag15
ag597
ag2727
ag12
ag7
aa(lp2875
g7
aa(lp2876
g410
aa(lp2877
a(lp2878
g1462
ag969
ag11
ag1463
ag317
ag673
ag7
ag92
aa(lp2879
g2700
ag92
aa(lp2880
a(lp2881
g969
aa(lp2882
a(lp2883
a(lp2884
a(lp2885
g3
ag53
ag153
aa(lp2886
a(lp2887
g705
aa(lp2888
g3
aa(lp2889
g18
ag15
ag317
aa(lp2890
g18
ag11
ag1824
aa(lp2891
a(lp2892
g673
aa(lp2893
a(lp2894
a(lp2895
g92
aa(lp2896
g1462
ag15
ag1463
aa(lp2897
g7
aa(lp2898
a(lp2899
g9
aa(lp2900
g1462
ag969
ag11
ag1463
ag7
aa(lp2901
a(lp2902
g797
ag798
aa(lp2903
a(lp2904
a(lp2905
g427
ag3
aa(lp2906
a(lp2907
a(lp2908
g7
aa(lp2909
a(lp2910
a(lp2911
g223
aa(lp2912
a(lp2913
g317
aa(lp2914
a(lp2915
a(lp2916
g3
aa(lp2917
a(lp2918
g2326
aa(lp2919
g2554
aa(lp2920
g969
ag15
aa(lp2921
g15
aa(lp2922
g11
aa(lp2923
g11
ag15
aa(lp2924
a(lp2925
a(lp2926
a(lp2927
g223
ag705
aa(lp2928
g71
ag3
ag673
ag733
ag693
aa(lp2929
a(lp2930
a(lp2931
g1447
ag23
ag717
aa(lp2932
g673
ag1042
aa(lp2933
g1462
ag969
ag11
ag1463
ag2305
aa(lp2934
g639
ag92
aa(lp2935
g2700
aa(lp2936
a(lp2937
g705
ag445
ag667
ag455
ag1797
ag9
ag691
aa(lp2938
a(lp2939
g969
ag705
aa(lp2940
g969
ag18
ag9
ag312
ag487
ag370
aa(lp2941
g15
ag705
ag7
aa(lp2942
g3
aa(lp2943
g7
aa(lp2944
g3
ag410
aa(lp2945
g15
ag261
ag705
ag95
ag54
ag96
aa(lp2946
a(lp2947
g15
ag797
aa(lp2948
g9
ag3
ag47
ag54
ag12
aa(lp2949
g53
ag44
ag370
aa(lp2950
g15
ag9
ag3
ag586
ag54
ag370
aa(lp2951
g9
ag52
ag54
aa(lp2952
g15
aa(lp2953
g3
ag54
aa(lp2954
g9
ag100
ag189
ag12
aa(lp2955
g9
ag52
aa(lp2956
g705
aa(lp2957
a(lp2958
g969
ag15
aa(lp2959
g2700
ag92
aa(lp2960
g455
ag3
ag103
ag47
ag2726
ag2305
ag92
aa(lp2961
a(lp2962
g15
ag9
ag52
ag95
ag7
aa(lp2963
g52
aa(lp2964
g18
ag11
ag15
ag100
ag7
aa(lp2965
g50
ag709
ag455
ag1797
ag121
ag9
ag3
ag54
ag7
aa(lp2966
g50
ag586
aa(lp2967
g15
ag121
ag3
ag1447
ag95
ag96
ag56
aa(lp2968
g3
ag12
ag2021
aa(lp2969
g3
ag2305
aa(lp2970
g9
ag3
ag54
ag12
ag86
aa(lp2971
a(lp2972
a(lp2973
g705
ag9
aa(lp2974
g92
aa(lp2975
g92
aa(lp2976
g92
aa(lp2977
a(lp2978
g691
aa(lp2979
g969
ag427
ag2305
ag7
aa(lp2980
g445
ag1797
ag121
ag4
aa(lp2981
g40
aa(lp2982
g705
ag3
ag586
ag691
aa(lp2983
g691
aa(lp2984
g1462
ag969
ag15
ag223
ag1463
ag691
ag692
ag51
ag52
ag693
ag7
aa(lp2985
g2305
aa(lp2986
g691
aa(lp2987
g691
ag2305
ag273
aa(lp2988
g2578
aa(lp2989
g2305
aa(lp2990
g3
ag53
aa(lp2991
g9
ag12
aa(lp2992
g691
ag92
aa(lp2993
g3
aa(lp2994
g9
ag3
ag2305
aa(lp2995
g2338
ag2305
ag370
ag12
aa(lp2996
g777
aa(lp2997
g691
aa(lp2998
a(lp2999
g969
ag3
ag54
ag12
ag55
ag45
aa(lp3000
g50
ag9
aa(lp3001
a(lp3002
g691
ag53
aa(lp3003
g969
ag771
ag56
aa(lp3004
g15
ag3
aa(lp3005
a(lp3006
g15
ag2305
ag7
ag92
aa(lp3007
g969
ag9
ag3
ag47
ag1013
ag2206
ag23
aa(lp3008
a(lp3009
g3
ag586
ag691
aa(lp3010
g969
ag2305
aa(lp3011
g777
ag2305
ag23
ag92
aa(lp3012
g3
ag54
ag100
aa(lp3013
g7
aa(lp3014
g969
ag15
ag223
aa(lp3015
g969
ag15
ag223
aa(lp3016
g223
ag427
aS'redd'
p3017
ag7
aS'nairobi_work_programme'
p3018
aa(lp3019
g15
ag2727
ag12
ag7
aa(lp3020
g691
aa(lp3021
a(lp3022
g7
aa(lp3023
g969
ag317
ag427
ag7
ag3018
aa(lp3024
g7
aa(lp3025
g7
aa(lp3026
g317
aa(lp3027
g15
ag2326
aa(lp3028
g2554
aa(lp3029
a(lp3030
g18
ag11
ag86
aa(lp3031
g18
aa(lp3032
a(lp3033
g18
aa(lp3034
g2466
ag2467
aa(lp3035
g223
aa(lp3036
g317
ag370
ag12
ag23
aa(lp3037
g917
aa(lp3038
g969
aa(lp3039
g15
ag223
aa(lp3040
g7
aa(lp3041
g427
aa(lp3042
g15
ag53
aa(lp3043
g1447
ag2305
aa(lp3044
a(lp3045
g223
ag2068
ag777
ag7
ag706
aa(lp3046
g797
aa(lp3047
g53
aa(lp3048
g3
ag793
aa(lp3049
g705
ag467
aa(lp3050
a(lp3051
a(lp3052
a(lp3053
g3
ag55
ag1013
ag2206
aa(lp3054
a(lp3055
g7
aa(lp3056
a(lp3057
g969
ag427
ag2700
ag7
ag2326
ag92
aa(lp3058
g705
ag3
aa(lp3059
g705
ag586
aa(lp3060
g705
ag2305
aa(lp3061
g100
ag189
aa(lp3062
g92
aa(lp3063
g3
ag693
ag54
ag7
ag153
ag2554
aa(lp3064
a(lp3065
a(lp3066
g92
aa(lp3067
a(lp3068
a(lp3069
a(lp3070
a(lp3071
a(lp3072
g969
ag18
ag15
aa(lp3073
g969
aa(lp3074
a(lp3075
g693
ag2305
aa(lp3076
g92
aa(lp3077
g2700
ag2578
aa(lp3078
g2700
ag2305
ag23
aa(lp3079
a(lp3080
g15
ag427
ag47
ag43
aa(lp3081
g9
ag527
ag7
aa(lp3082
a(lp3083
g2305
aa(lp3084
g969
ag11
ag427
ag7
ag2466
ag2554
ag3018
ag92
ag706
ag2467
aa(lp3085
a(lp3086
a(lp3087
g696
ag693
aa(lp3088
g15
aa(lp3089
a(lp3090
g50
ag121
ag2700
aa(lp3091
g969
aa(lp3092
g50
ag3
aa(lp3093
g2466
ag2467
aa(lp3094
a(lp3095
g705
aa(lp3096
g705
aa(lp3097
g11
ag9
aa(lp3098
g18
aa(lp3099
g1365
ag223
ag1615
aa(lp3100
g1864
ag777
ag3018
aa(lp3101
g866
aa(lp3102
g18
ag15
aa(lp3103
g9
ag2305
ag2554
aa(lp3104
g427
ag3
aa(lp3105
g7
aa(lp3106
a(lp3107
g2305
aa(lp3108
g969
ag18
aa(lp3109
g969
ag427
ag3
ag7
ag2466
ag92
ag2467
aa(lp3110
a(lp3111
g92
aa(lp3112
g2700
ag2578
ag7
aa(lp3113
g2727
ag86
ag7
aa(lp3114
g121
ag12
aa(lp3115
g79
ag969
aa(lp3116
g969
aa(lp3117
g3
ag1013
ag2206
ag153
aa(lp3118
g2466
aa(lp3119
g846
ag705
aa(lp3120
a(lp3121
g15
ag705
ag9
ag370
ag12
aa(lp3122
g15
aa(lp3123
g2326
aa(lp3124
g427
ag1130
aa(lp3125
g18
ag527
ag2727
ag7
aa(lp3126
g7
aa(lp3127
g188
ag40
ag3
aa(lp3128
g188
ag40
ag586
aa(lp3129
a(lp3130
g667
ag3
ag53
ag54
aa(lp3131
a(lp3132
a(lp3133
a(lp3134
g969
ag11
ag317
ag427
ag7
ag2554
ag92
aa(lp3135
a(lp3136
g2305
aa(lp3137
g2700
ag7
ag1824
aa(lp3138
g15
ag370
ag12
ag86
aa(lp3139
a(lp3140
g969
ag427
ag41
ag7
aa(lp3141
g223
ag3
aa(lp3142
g3
aa(lp3143
g427
ag3
ag370
ag12
aa(lp3144
g2578
ag370
ag12
aa(lp3145
g969
ag15
aa(lp3146
g577
aa(lp3147
a(lp3148
a(lp3149
g317
aa(lp3150
g11
aa(lp3151
a(lp3152
a(lp3153
g18
ag15
aa(lp3154
g2554
ag92
aa(lp3155
g18
ag223
aa(lp3156
g7
aa(lp3157
g7
aa(lp3158
g427
aa(lp3159
g2305
aa(lp3160
g3
aa(lp3161
a(lp3162
g969
ag317
ag427
ag2700
ag7
ag3018
ag92
aa(lp3163
a(lp3164
g3
ag2305
ag92
aa(lp3165
g92
aa(lp3166
g969
ag705
ag2305
ag153
aa(lp3167
g223
ag50
ag121
ag3
ag2338
ag2700
aa(lp3168
g969
ag15
aa(lp3169
g969
ag18
ag15
aa(lp3170
g2466
ag3018
aa(lp3171
a(lp3172
a(lp3173
a(lp3174
g317
aa(lp3175
g11
aa(lp3176
a(lp3177
a(lp3178
g3018
aa(lp3179
a(lp3180
g427
aS'carbon_stocks'
p3181
aa(lp3182
g15
ag527
ag7
aa(lp3183
g969
ag18
ag15
aa(lp3184
g92
aa(lp3185
a(lp3186
a(lp3187
a(lp3188
a(lp3189
a(lp3190
g3
ag2305
ag55
ag1013
ag2206
ag153
aa(lp3191
g3
ag793
aa(lp3192
g705
aa(lp3193
a(lp3194
g693
aa(lp3195
g7
aa(lp3196
g427
ag3
ag1130
ag51
ag43
ag3181
aa(lp3197
a(lp3198
a(lp3199
a(lp3200
a(lp3201
a(lp3202
g696
aa(lp3203
g866
aa(lp3204
g11
aa(lp3205
g7
aa(lp3206
g969
ag7
aa(lp3207
g3
aa(lp3208
g92
aa(lp3209
g2700
aa(lp3210
g92
aa(lp3211
g3
ag2338
aa(lp3212
g3
aa(lp3213
g7
aa(lp3214
g2305
aa(lp3215
a(lp3216
a(lp3217
a(lp3218
g103
ag2305
ag7
aa(lp3219
a(lp3220
g3
ag691
aa(lp3221
g969
ag15
ag427
aa(lp3222
g2248
ag188
ag455
ag1824
aa(lp3223
g597
ag12
aa(lp3224
g969
ag2248
ag312
aa(lp3225
g969
ag3
ag103
ag2305
ag86
ag7
aa(lp3226
g2305
aa(lp3227
g2338
aS'shared_vision'
p3228
ag273
aa(lp3229
g3
aa(lp3230
g3
aS'mitigation_actions'
p3231
aa(lp3232
a(lp3233
g223
ag846
ag705
aa(lp3234
g15
aa(lp3235
g15
aa(lp3236
g2338
aa(lp3237
g3
ag7
aa(lp3238
g7
ag1824
aa(lp3239
g478
ag7
aa(lp3240
g7
aa(lp3241
a(lp3242
g427
ag2305
ag95
ag273
ag96
ag7
aa(lp3243
g3
aa(lp3244
g3
ag55
ag771
aa(lp3245
g2727
aa(lp3246
g969
ag15
ag333
ag374
ag7
ag3018
aa(lp3247
g705
ag1130
ag52
aa(lp3248
g9
ag273
ag12
ag86
aa(lp3249
g15
ag7
aa(lp3250
g18
ag121
ag54
ag100
ag96
ag109
ag7
aa(lp3251
g54
ag370
ag597
ag2727
ag12
ag109
ag7
aa(lp3252
g667
ag189
aa(lp3253
g7
aa(lp3254
g18
ag527
ag370
ag12
ag7
aa(lp3255
a(lp3256
a(lp3257
g7
aa(lp3258
g2338
aa(lp3259
a(lp3260
g7
aa(lp3261
g92
aa(lp3262
a(lp3263
g691
ag2700
aa(lp3264
g691
ag2305
aa(lp3265
g1590
ag3
ag691
aa(lp3266
g691
ag2578
aa(lp3267
g691
aS'bali_action_plan'
p3268
ag2700
ag3228
ag12
aa(lp3269
a(lp3270
g9
ag3268
aa(lp3271
g7
aa(lp3272
a(lp3273
g3268
ag3228
ag2305
aa(lp3274
a(lp3275
g121
ag3
aS'nationally_appropriate_mitigation_actions'
p3276
ag100
ag12
ag7
aa(lp3277
a(lp3278
g969
ag223
ag92
aa(lp3279
g705
aa(lp3280
a(lp3281
g3
ag2700
ag3228
ag2021
aa(lp3282
a(lp3283
a(lp3284
g969
ag15
ag691
ag92
aa(lp3285
g3228
aa(lp3286
g427
ag3017
ag7
ag2466
ag3018
ag706
ag2467
aa(lp3287
a(lp3288
g3228
aa(lp3289
a(lp3290
a(lp3291
a(lp3292
a(lp3293
a(lp3294
g1365
ag11
ag223
ag1615
ag705
ag3018
aa(lp3295
a(lp3296
g3268
ag2700
aa(lp3297
g3228
ag12
aa(lp3298
g15
ag223
ag121
ag410
ag3228
ag12
aa(lp3299
a(lp3300
a(lp3301
g223
aa(lp3302
g47
ag691
aa(lp3303
g705
ag2068
aa(lp3304
g693
aa(lp3305
g7
aa(lp3306
g2248
aa(lp3307
g866
aa(lp3308
g969
aa(lp3309
g333
aa(lp3310
g1365
ag969
ag18
ag15
ag223
aa(lp3311
g223
ag3017
ag7
ag3018
aa(lp3312
g137
ag3018
aa(lp3313
a(lp3314
g527
ag7
aa(lp3315
g3228
aa(lp3316
g3228
aa(lp3317
a(lp3318
g2700
ag3228
aa(lp3319
g15
ag7
aa(lp3320
g3017
aa(lp3321
g15
aa(lp3322
g797
aa(lp3323
a(lp3324
g3
ag771
ag1013
ag2206
aa(lp3325
a(lp3326
g792
ag125
aa(lp3327
a(lp3328
g18
ag11
ag15
ag223
aa(lp3329
g79
ag18
ag11
ag15
ag223
aa(lp3330
a(lp3331
g1365
ag15
ag223
aa(lp3332
g7
aa(lp3333
g9
ag3017
ag527
aa(lp3334
g705
aa(lp3335
a(lp3336
a(lp3337
g2305
ag2554
ag92
aa(lp3338
a(lp3339
g3
ag691
aa(lp3340
g53
ag3228
aa(lp3341
g71
ag3268
ag2338
ag2419
ag3228
aa(lp3342
g223
ag3228
aa(lp3343
g15
ag3
ag2419
ag3228
ag7
aa(lp3344
g2726
ag54
aa(lp3345
a(lp3346
g705
ag733
ag693
aa(lp3347
g3228
aa(lp3348
g693
aa(lp3349
g2305
aa(lp3350
a(lp3351
g11
ag3017
ag3228
ag7
ag3018
ag92
ag2467
aa(lp3352
g705
aa(lp3353
g846
ag705
ag121
ag2305
aa(lp3354
a(lp3355
g969
ag15
ag1110
ag23
aa(lp3356
g15
aa(lp3357
g92
aa(lp3358
g333
ag3228
ag7
aa(lp3359
g3228
aa(lp3360
g71
ag53
aa(lp3361
g54
aa(lp3362
g693
ag153
aa(lp3363
a(lp3364
g3
ag673
ag693
ag326
aa(lp3365
g3
ag410
aa(lp3366
a(lp3367
a(lp3368
g733
aa(lp3369
a(lp3370
g92
aa(lp3371
g705
ag2554
ag92
aa(lp3372
g3017
aa(lp3373
g9
ag3
aa(lp3374
g370
ag7
aa(lp3375
g7
aa(lp3376
g18
ag15
ag23
aa(lp3377
g562
ag3018
aa(lp3378
g18
ag11
aa(lp3379
g2466
aa(lp3380
g3268
ag3228
aa(lp3381
a(lp3382
g969
ag11
ag3017
ag7
ag92
aa(lp3383
g92
aa(lp3384
g969
aa(lp3385
g1110
aa(lp3386
g695
aa(lp3387
a(lp3388
g693
aa(lp3389
a(lp3390
a(lp3391
a(lp3392
g9
aa(lp3393
g52
ag44
aa(lp3394
g969
ag18
ag15
ag2305
aa(lp3395
g3
ag673
aa(lp3396
g705
aa(lp3397
g705
ag887
ag94
aa(lp3398
a(lp3399
g2554
aa(lp3400
g11
ag15
aa(lp3401
g9
ag3276
aa(lp3402
a(lp3403
g50
aa(lp3404
g3017
aa(lp3405
a(lp3406
a(lp3407
g18
ag370
ag7
aa(lp3408
g705
ag2554
aa(lp3409
a(lp3410
g86
aa(lp3411
g969
ag11
ag15
ag223
ag3017
ag3228
ag12
ag2467
aa(lp3412
a(lp3413
g777
aa(lp3414
g969
ag321
aa(lp3415
g969
ag15
ag1110
aa(lp3416
g92
aa(lp3417
a(lp3418
g705
aa(lp3419
a(lp3420
g705
aa(lp3421
a(lp3422
g12
aa(lp3423
g691
ag86
aa(lp3424
g15
ag92
aa(lp3425
g1365
aa(lp3426
g15
aa(lp3427
a(lp3428
a(lp3429
g3017
aa(lp3430
g121
ag3
ag3228
ag3276
aa(lp3431
g1717
ag3
aa(lp3432
g3228
ag717
aa(lp3433
g3
aa(lp3434
g520
aa(lp3435
a(lp3436
a(lp3437
a(lp3438
a(lp3439
a(lp3440
g705
ag92
aa(lp3441
a(lp3442
g866
ag969
ag11
ag12
ag109
ag2554
ag2467
aa(lp3443
g2727
ag2021
aa(lp3444
g12
aa(lp3445
g562
aa(lp3446
g9
ag109
aa(lp3447
g597
ag12
aa(lp3448
g125
ag2021
ag7
aa(lp3449
g12
aa(lp3450
g3
ag12
aa(lp3451
g12
ag109
aa(lp3452
g9
ag597
ag2727
ag12
ag86
ag7
aa(lp3453
g1365
ag9
ag717
aa(lp3454
g708
aa(lp3455
g86
aa(lp3456
g969
aa(lp3457
g15
aa(lp3458
g1110
aa(lp3459
a(lp3460
g693
aa(lp3461
a(lp3462
g3
aa(lp3463
g705
aa(lp3464
g188
aa(lp3465
g11
aa(lp3466
S'mrv'
p3467
aa(lp3468
g121
ag9
ag3276
aa(lp3469
g3017
ag3467
aa(lp3470
g3467
ag12
aa(lp3471
a(lp3472
g18
ag11
aa(lp3473
a(lp3474
g2554
ag92
aa(lp3475
g9
ag43
aa(lp3476
g11
ag693
aa(lp3477
a(lp3478
g969
ag11
ag15
ag223
ag3017
ag12
ag2554
ag3018
ag92
aa(lp3479
a(lp3480
g562
ag86
aa(lp3481
g969
ag15
aa(lp3482
g15
aa(lp3483
g3
aa(lp3484
g586
ag92
aa(lp3485
g705
ag92
aa(lp3486
g705
ag9
aa(lp3487
g705
aa(lp3488
a(lp3489
g562
ag12
ag2021
ag1824
aa(lp3490
g11
ag9
ag12
ag86
aa(lp3491
g12
ag109
aa(lp3492
g18
ag11
aa(lp3493
g3231
aa(lp3494
g41
ag3276
ag3467
ag23
aa(lp3495
a(lp3496
g71
ag3
ag3231
aa(lp3497
a(lp3498
g3018
aa(lp3499
g691
ag2554
aa(lp3500
g9
ag2554
ag92
aa(lp3501
a(lp3502
g2068
ag3017
aa(lp3503
g3276
ag3018
aa(lp3504
g969
ag11
ag15
ag223
ag3
aa(lp3505
a(lp3506
a(lp3507
g2700
ag3228
ag12
aa(lp3508
a(lp3509
g3
ag3017
ag54
ag7
aa(lp3510
a(lp3511
g3017
aa(lp3512
g12
aa(lp3513
a(lp3514
g125
aa(lp3515
g3017
aa(lp3516
g15
ag3017
aa(lp3517
a(lp3518
a(lp3519
a(lp3520
g18
ag7
aa(lp3521
a(lp3522
g2554
ag92
aa(lp3523
g11
aa(lp3524
g79
ag18
aa(lp3525
a(lp3526
a(lp3527
a(lp3528
a(lp3529
g582
aa(lp3530
a(lp3531
a(lp3532
g969
ag92
aa(lp3533
g969
ag2700
ag3228
ag92
aa(lp3534
a(lp3535
g455
aa(lp3536
g3017
aa(lp3537
g969
ag15
ag467
aa(lp3538
a(lp3539
g2305
ag7
aa(lp3540
g455
ag3
ag137
aa(lp3541
g969
ag223
ag374
ag23
aa(lp3542
g3228
aa(lp3543
g3
ag3017
ag3467
aa(lp3544
g969
aa(lp3545
g2305
aa(lp3546
g457
ag52
ag3017
aa(lp3547
g52
aa(lp3548
g2700
ag2578
ag3228
ag7
aa(lp3549
g71
ag121
ag3
ag2578
ag3228
ag1824
aa(lp3550
g9
ag3
ag3228
ag3276
aa(lp3551
a(lp3552
a(lp3553
g969
ag15
ag273
aa(lp3554
g15
ag3
ag43
ag7
aa(lp3555
g969
aa(lp3556
g714
ag92
aa(lp3557
g705
ag3
aa(lp3558
a(lp3559
g705
aa(lp3560
g969
ag3228
ag54
aa(lp3561
a(lp3562
a(lp3563
g691
aa(lp3564
a(lp3565
g691
ag2700
aa(lp3566
g1590
aa(lp3567
g3
ag691
aa(lp3568
g2578
aa(lp3569
g3
ag3268
ag2700
ag2578
ag3228
ag12
aa(lp3570
a(lp3571
a(lp3572
g714
ag691
ag692
ag51
ag52
ag693
aa(lp3573
a(lp3574
g691
aa(lp3575
g3
aa(lp3576
a(lp3577
g12
aa(lp3578
g691
aa(lp3579
g321
ag520
aa(lp3580
a(lp3581
g50
ag1864
ag9
ag54
aa(lp3582
g2338
aa(lp3583
g15
aa(lp3584
g3268
aa(lp3585
g3
aa(lp3586
g11
ag12
aa(lp3587
g969
ag705
ag691
aa(lp3588
g427
ag3017
ag7
ag2466
ag3018
ag706
ag2467
aa(lp3589
g410
aa(lp3590
a(lp3591
g3
ag4
aa(lp3592
g427
ag3017
ag2700
ag3228
ag12
aa(lp3593
a(lp3594
g410
ag2338
aa(lp3595
g777
aa(lp3596
a(lp3597
a(lp3598
a(lp3599
g374
ag2248
ag445
aa(lp3600
g3268
ag45
aa(lp3601
g15
ag223
ag708
ag1864
ag12
aa(lp3602
g12
ag321
ag23
aa(lp3603
g714
aa(lp3604
g223
ag3
ag3467
ag520
aa(lp3605
g15
ag2338
ag3017
ag12
aa(lp3606
a(lp3607
g2700
aa(lp3608
g410
ag3268
ag321
aa(lp3609
g3
ag3017
ag3467
ag86
ag1013
ag2206
aa(lp3610
g3276
ag3467
aa(lp3611
a(lp3612
a(lp3613
g12
aa(lp3614
a(lp3615
a(lp3616
g15
ag374
aa(lp3617
g3
ag55
ag771
ag520
aa(lp3618
g1447
ag100
aa(lp3619
S'climate_justice'
p3620
ag510
ag2068
aa(lp3621
g3620
ag1717
ag457
aa(lp3622
a(lp3623
g639
aa(lp3624
g714
ag692
ag51
ag52
ag693
aa(lp3625
a(lp3626
g3
aa(lp3627
a(lp3628
g3
aa(lp3629
g2305
aa(lp3630
a(lp3631
g50
ag691
aa(lp3632
g3
ag714
ag691
ag973
ag693
aa(lp3633
g3
ag693
ag410
ag321
aa(lp3634
a(lp3635
g714
aa(lp3636
a(lp3637
g3
aa(lp3638
a(lp3639
a(lp3640
a(lp3641
g3
aa(lp3642
a(lp3643
g410
ag321
aa(lp3644
a(lp3645
a(lp3646
g3
ag3017
ag2700
ag3228
ag12
aa(lp3647
g866
aa(lp3648
g50
aa(lp3649
g11
aa(lp3650
a(lp3651
g374
aa(lp3652
g15
aa(lp3653
g1365
ag18
ag15
ag223
ag2305
aa(lp3654
g18
aa(lp3655
g18
aa(lp3656
g79
ag18
ag11
aa(lp3657
g18
ag15
ag223
aa(lp3658
a(lp3659
g577
aa(lp3660
a(lp3661
a(lp3662
a(lp3663
g866
ag18
ag11
aa(lp3664
g18
ag15
ag3
aa(lp3665
g1365
ag15
ag223
aa(lp3666
g2466
aa(lp3667
a(lp3668
a(lp3669
g2554
aa(lp3670
g18
ag527
ag7
aa(lp3671
g797
ag3018
ag706
aa(lp3672
g3017
aa(lp3673
g527
ag7
aa(lp3674
a(lp3675
g188
ag137
ag3018
aa(lp3676
g2068
ag137
ag52
ag43
ag3017
aa(lp3677
g797
aa(lp3678
g798
aa(lp3679
a(lp3680
g3
ag103
ag771
ag1013
ag2206
aa(lp3681
a(lp3682
g705
aa(lp3683
g3
ag582
ag714
ag673
ag693
aa(lp3684
g3
ag582
ag693
aa(lp3685
g3
ag899
ag717
aa(lp3686
g3
ag714
ag693
aa(lp3687
a(lp3688
g714
ag693
aa(lp3689
g2726
ag2700
ag3228
ag3276
ag12
aa(lp3690
S'non-market_approaches'
p3691
ag3276
aa(lp3692
g3467
aa(lp3693
a(lp3694
S'loss_and_damage'
p3695
ag793
ag153
aa(lp3696
a(lp3697
a(lp3698
a(lp3699
g3228
aa(lp3700
g3
ag771
aa(lp3701
g3268
ag153
aa(lp3702
g3
ag3268
ag3276
aa(lp3703
g11
aa(lp3704
g12
aa(lp3705
g2068
aS'reference_levels'
p3706
ag43
ag3017
aa(lp3707
a(lp3708
a(lp3709
a(lp3710
a(lp3711
g445
ag3
ag47
aa(lp3712
g3228
ag12
aa(lp3713
a(lp3714
a(lp3715
a(lp3716
a(lp3717
a(lp3718
g691
ag3268
ag3228
aa(lp3719
g3
aa(lp3720
a(lp3721
g691
ag2419
aa(lp3722
a(lp3723
a(lp3724
a(lp3725
a(lp3726
a(lp3727
g969
ag15
aa(lp3728
g705
ag95
aa(lp3729
g846
ag705
ag467
aa(lp3730
g705
ag2726
ag2305
ag95
aa(lp3731
g121
aa(lp3732
g705
ag887
ag1042
ag43
aa(lp3733
g705
aa(lp3734
a(lp3735
g969
ag15
ag1110
aa(lp3736
g969
ag15
ag1110
ag777
ag9
ag3
aa(lp3737
g969
ag15
ag3620
ag1717
ag188
ag2068
aa(lp3738
a(lp3739
g3276
ag3467
aa(lp3740
g714
aa(lp3741
g40
aa(lp3742
g50
ag520
aa(lp3743
g18
ag11
aa(lp3744
g2466
ag2467
aa(lp3745
a(lp3746
a(lp3747
a(lp3748
g673
aa(lp3749
a(lp3750
g691
aa(lp3751
g3
aa(lp3752
g71
ag3
ag973
ag693
aa(lp3753
g23
aa(lp3754
a(lp3755
g3018
aa(lp3756
g12
ag86
ag7
aa(lp3757
g527
ag12
ag7
aa(lp3758
g15
aa(lp3759
g43
ag3017
aa(lp3760
g3706
ag778
ag693
aa(lp3761
g3228
aa(lp3762
g121
aa(lp3763
a(lp3764
g12
ag2021
aa(lp3765
g691
aa(lp3766
a(lp3767
a(lp3768
g223
aa(lp3769
g3228
ag12
aa(lp3770
a(lp3771
g370
aa(lp3772
a(lp3773
a(lp3774
g3
ag771
ag1013
aa(lp3775
a(lp3776
g691
aa(lp3777
g3
ag691
ag2305
aa(lp3778
a(lp3779
g691
ag2419
aa(lp3780
a(lp3781
g691
ag2305
aa(lp3782
a(lp3783
g43
ag3017
aa(lp3784
a(lp3785
g969
ag3620
aa(lp3786
a(lp3787
a(lp3788
a(lp3789
g705
aa(lp3790
g705
aa(lp3791
g705
aa(lp3792
g223
ag846
ag705
ag54
aa(lp3793
a(lp3794
g705
ag586
aa(lp3795
a(lp3796
a(lp3797
g15
ag374
aa(lp3798
g3228
aa(lp3799
g15
aa(lp3800
g12
aa(lp3801
g3268
aa(lp3802
g3706
ag3268
aa(lp3803
g3268
ag2726
ag153
aa(lp3804
g3268
ag3231
aa(lp3805
g781
ag793
aa(lp3806
g3268
aa(lp3807
g3276
aa(lp3808
g11
aa(lp3809
g50
aa(lp3810
g50
aa(lp3811
g50
aa(lp3812
g1042
ag693
aa(lp3813
g714
aa(lp3814
a(lp3815
g3
ag582
ag693
aa(lp3816
g3706
ag3017
aa(lp3817
g577
aa(lp3818
g3
aa(lp3819
a(lp3820
a(lp3821
g3
aa(lp3822
a(lp3823
g691
ag23
aa(lp3824
a(lp3825
a(lp3826
a(lp3827
a(lp3828
g3228
ag12
aa(lp3829
g12
aa(lp3830
a(lp3831
g3268
aa(lp3832
g3268
ag3276
aa(lp3833
g188
ag3268
ag2726
aa(lp3834
g3268
ag3231
aa(lp3835
a(lp3836
g2419
ag3228
aa(lp3837
a(lp3838
g969
ag18
ag3
aa(lp3839
g705
aa(lp3840
g18
ag11
aa(lp3841
g3706
ag3017
aa(lp3842
a(lp3843
a(lp3844
g2466
ag2467
aa(lp3845
a(lp3846
a(lp3847
g41
aa(lp3848
g691
aa(lp3849
a(lp3850
g23
aa(lp3851
a(lp3852
g100
ag86
aa(lp3853
g12
aa(lp3854
a(lp3855
a(lp3856
a(lp3857
g12
aa(lp3858
g52
ag12
aa(lp3859
g691
aa(lp3860
g691
aa(lp3861
a(lp3862
a(lp3863
g12
aa(lp3864
g2305
ag12
aa(lp3865
g691
ag23
aa(lp3866
g11
ag103
ag7
ag717
aa(lp3867
a(lp3868
g23
aa(lp3869
a(lp3870
g691
aa(lp3871
g693
aa(lp3872
g714
ag691
ag693
aa(lp3873
g3
ag691
aa(lp3874
g3018
ag706
aa(lp3875
g43
ag3017
aa(lp3876
a(lp3877
g12
aa(lp3878
g527
ag7
aa(lp3879
g50
aa(lp3880
g261
ag3620
ag1717
ag457
ag9
ag3017
aa(lp3881
a(lp3882
a(lp3883
a(lp3884
g2466
aa(lp3885
g11
aa(lp3886
g15
ag223
aa(lp3887
g188
aa(lp3888
g11
ag15
ag333
aa(lp3889
g9
ag12
ag7
aa(lp3890
a(lp3891
g714
ag693
aa(lp3892
a(lp3893
g23
ag520
aa(lp3894
g582
ag691
aa(lp3895
a(lp3896
g188
ag3268
ag2726
ag153
aa(lp3897
g3268
aa(lp3898
g693
aa(lp3899
a(lp3900
g71
aa(lp3901
g1447
aa(lp3902
a(lp3903
a(lp3904
a(lp3905
a(lp3906
a(lp3907
a(lp3908
g3268
aa(lp3909
a(lp3910
a(lp3911
g705
ag3
ag3228
ag12
aa(lp3912
g705
aa(lp3913
g3
ag693
aa(lp3914
a(lp3915
a(lp3916
g50
aa(lp3917
g50
ag691
aa(lp3918
a(lp3919
g40
aa(lp3920
g153
aa(lp3921
g40
aa(lp3922
g321
aa(lp3923
g582
ag714
aa(lp3924
g586
aa(lp3925
g15
aa(lp3926
g12
aa(lp3927
g3228
aa(lp3928
a(lp3929
a(lp3930
a(lp3931
a(lp3932
g3
aa(lp3933
a(lp3934
a(lp3935
g969
ag2700
aa(lp3936
a(lp3937
g15
ag3
ag691
ag100
ag12
aa(lp3938
a(lp3939
g3017
ag12
aa(lp3940
g100
aa(lp3941
a(lp3942
a(lp3943
a(lp3944
a(lp3945
g3
ag691
aa(lp3946
g2068
ag3228
aa(lp3947
a(lp3948
a(lp3949
g3
aa(lp3950
g714
aa(lp3951
a(lp3952
a(lp3953
a(lp3954
a(lp3955
a(lp3956
g188
ag2726
ag2700
ag3276
ag12
aa(lp3957
g3
ag3228
ag3467
ag771
ag1013
ag153
aa(lp3958
g15
aa(lp3959
a(lp3960
g223
aa(lp3961
g1447
aS'market_approaches'
p3962
ag2305
aa(lp3963
g223
ag53
aa(lp3964
a(lp3965
g3268
aa(lp3966
a(lp3967
g781
aa(lp3968
g969
aa(lp3969
a(lp3970
a(lp3971
g693
aa(lp3972
a(lp3973
g709
ag914
ag714
aa(lp3974
g705
ag1110
aa(lp3975
g705
ag1110
aa(lp3976
a(lp3977
a(lp3978
a(lp3979
g410
aa(lp3980
g705
aa(lp3981
g3
ag691
aa(lp3982
g374
aa(lp3983
a(lp3984
a(lp3985
a(lp3986
a(lp3987
a(lp3988
a(lp3989
g3
ag103
ag691
aa(lp3990
g15
ag223
ag9
aa(lp3991
g103
aa(lp3992
g1365
ag223
ag1615
ag9
aa(lp3993
a(lp3994
g667
ag3
ag321
aa(lp3995
a(lp3996
g333
ag3276
ag370
aa(lp3997
a(lp3998
a(lp3999
a(lp4000
a(lp4001
a(lp4002
a(lp4003
g705
ag9
aa(lp4004
g3620
aa(lp4005
g9
aa(lp4006
g54
aa(lp4007
a(lp4008
a(lp4009
a(lp4010
a(lp4011
a(lp4012
g3
ag714
ag693
aa(lp4013
a(lp4014
a(lp4015
g582
aa(lp4016
g914
ag705
ag39
ag714
aa(lp4017
g1042
ag693
aa(lp4018
g47
aa(lp4019
g3
ag714
ag693
aa(lp4020
g3228
ag3231
ag12
aa(lp4021
g3
ag153
aa(lp4022
a(lp4023
g188
ag2726
aa(lp4024
a(lp4025
g2419
aa(lp4026
g2727
ag12
aa(lp4027
g510
ag3
ag2700
ag3228
ag12
aa(lp4028
g3276
aa(lp4029
g15
aa(lp4030
g333
aa(lp4031
g792
ag125
ag3231
aa(lp4032
g3962
aa(lp4033
a(lp4034
a(lp4035
a(lp4036
a(lp4037
g3962
aa(lp4038
a(lp4039
g969
aa(lp4040
a(lp4041
a(lp4042
a(lp4043
a(lp4044
g691
ag3467
aa(lp4045
g691
aa(lp4046
g691
ag2700
aa(lp4047
a(lp4048
g1590
aa(lp4049
g3
ag691
aa(lp4050
g691
ag2578
aa(lp4051
g3268
ag2700
ag2578
ag7
aa(lp4052
a(lp4053
g12
aa(lp4054
g3
ag714
ag691
ag692
ag51
ag52
ag693
aa(lp4055
a(lp4056
g3231
aa(lp4057
a(lp4058
g3
aa(lp4059
a(lp4060
g714
ag693
aa(lp4061
a(lp4062
a(lp4063
g714
ag693
aa(lp4064
g2305
aa(lp4065
g12
aa(lp4066
g43
ag12
aa(lp4067
g639
ag691
ag54
ag12
aa(lp4068
g691
ag2700
aa(lp4069
g54
aa(lp4070
a(lp4071
a(lp4072
a(lp4073
g691
ag3268
aa(lp4074
a(lp4075
a(lp4076
g1462
ag79
ag15
ag223
ag1463
ag3467
aa(lp4077
g3
ag12
aa(lp4078
S'redd+'
p4079
ag3467
ag12
aa(lp4080
g691
aa(lp4081
g103
ag691
aa(lp4082
g223
aa(lp4083
g777
ag4079
aa(lp4084
g3467
ag12
aa(lp4085
a(lp4086
a(lp4087
g691
aa(lp4088
a(lp4089
g714
ag692
ag51
ag52
ag693
ag1447
aa(lp4090
g714
ag2419
aa(lp4091
g691
aa(lp4092
g3
ag582
ag973
ag693
aa(lp4093
a(lp4094
a(lp4095
g3467
aa(lp4096
a(lp4097
g15
ag23
aa(lp4098
g3268
aa(lp4099
g3695
aa(lp4100
g3695
aS'climate_finance'
p4101
ag4079
ag3467
aS'ica'
p4102
ag12
ag23
aa(lp4103
g3228
aa(lp4104
g2338
aS'green_climate_fund'
p4105
ag3467
aa(lp4106
g47
ag4079
aa(lp4107
g714
ag691
ag693
aa(lp4108
g3228
ag12
aa(lp4109
g15
ag4079
ag12
aa(lp4110
a(lp4111
g866
aa(lp4112
a(lp4113
g11
ag223
ag7
aa(lp4114
g1462
ag866
ag1365
ag11
ag223
ag1463
ag1615
ag7
aa(lp4115
g18
ag11
ag15
ag223
ag7
aa(lp4116
g18
ag11
ag15
ag223
aa(lp4117
g577
aa(lp4118
g691
aa(lp4119
g866
aa(lp4120
g866
ag18
aa(lp4121
g317
aa(lp4122
a(lp4123
a(lp4124
a(lp4125
a(lp4126
a(lp4127
g1365
ag121
ag2466
ag2467
aa(lp4128
a(lp4129
g1365
ag223
aa(lp4130
g18
ag7
aa(lp4131
g18
ag3620
ag2727
ag12
ag7
aa(lp4132
a(lp4133
a(lp4134
a(lp4135
a(lp4136
g71
ag705
ag43
ag3018
ag706
aa(lp4137
g705
ag3018
aa(lp4138
g3018
aa(lp4139
g71
ag9
ag3467
aa(lp4140
g9
ag43
aa(lp4141
g3620
ag137
ag43
ag12
aa(lp4142
g312
aa(lp4143
g9
ag12
ag109
aa(lp4144
g797
aa(lp4145
g50
aa(lp4146
a(lp4147
g3
ag778
ag44
aa(lp4148
g3
ag771
ag1013
ag2206
aa(lp4149
g3
ag103
ag1013
ag153
aa(lp4150
g9
aa(lp4151
a(lp4152
g39
ag32
aa(lp4153
a(lp4154
g846
ag71
ag705
aa(lp4155
g43
ag693
ag4079
aa(lp4156
a(lp4157
a(lp4158
g100
aa(lp4159
a(lp4160
a(lp4161
a(lp4162
g86
aa(lp4163
g691
aa(lp4164
a(lp4165
g691
aa(lp4166
g691
aa(lp4167
g41
aa(lp4168
a(lp4169
a(lp4170
g3620
ag2068
ag3
ag2419
aa(lp4171
g705
ag9
aa(lp4172
g846
ag71
ag705
ag9
aa(lp4173
g705
ag691
aa(lp4174
g705
ag188
ag52
ag597
aa(lp4175
g846
ag71
ag261
ag705
ag1717
ag457
ag9
ag3
ag586
ag43
ag95
ag54
ag100
aa(lp4176
g705
aa(lp4177
a(lp4178
a(lp4179
g714
aa(lp4180
g695
aa(lp4181
g695
aa(lp4182
g969
ag15
aa(lp4183
a(lp4184
g15
ag9
aa(lp4185
g969
ag2068
aa(lp4186
g9
ag691
aa(lp4187
g691
aa(lp4188
g691
aa(lp4189
g3706
ag1042
ag778
ag693
aa(lp4190
g778
aa(lp4191
g40
ag3
aa(lp4192
g3695
aa(lp4193
g15
ag12
aa(lp4194
g2727
ag12
aa(lp4195
g3268
ag3276
ag3467
aa(lp4196
g691
ag3467
aa(lp4197
a(lp4198
a(lp4199
g691
ag41
ag23
aa(lp4200
a(lp4201
g15
aa(lp4202
g15
aa(lp4203
a(lp4204
g969
ag15
aa(lp4205
a(lp4206
g577
aa(lp4207
a(lp4208
a(lp4209
a(lp4210
g3231
aa(lp4211
g691
ag1447
aa(lp4212
g714
aa(lp4213
g705
aa(lp4214
g261
ag914
ag1110
ag586
aa(lp4215
g2305
aa(lp4216
g71
ag705
aa(lp4217
g705
aa(lp4218
g846
ag705
ag1110
ag43
ag12
aa(lp4219
g705
ag691
aa(lp4220
g691
aa(lp4221
g705
aa(lp4222
g2305
aa(lp4223
g15
ag899
ag691
ag41
ag2305
aa(lp4224
a(lp4225
g639
ag2305
aa(lp4226
a(lp4227
g2305
aa(lp4228
g899
ag2305
aa(lp4229
g695
aa(lp4230
g2554
aa(lp4231
g695
aa(lp4232
g695
ag3
ag673
aa(lp4233
g695
aa(lp4234
g3
ag673
aa(lp4235
a(lp4236
g2700
ag3228
aa(lp4237
g2419
aa(lp4238
a(lp4239
a(lp4240
g899
aa(lp4241
a(lp4242
g3706
ag693
aa(lp4243
a(lp4244
g261
ag427
ag691
ag1447
ag3962
ag54
ag86
aa(lp4245
a(lp4246
a(lp4247
a(lp4248
g23
aa(lp4249
g691
ag3268
ag23
aa(lp4250
g691
ag6
aa(lp4251
g15
ag691
ag12
aa(lp4252
g3
aa(lp4253
a(lp4254
g478
ag691
ag3268
aa(lp4255
g691
aa(lp4256
a(lp4257
g691
ag23
aa(lp4258
a(lp4259
g691
aa(lp4260
a(lp4261
a(lp4262
a(lp4263
g778
ag693
aa(lp4264
g705
ag1110
ag714
aa(lp4265
a(lp4266
g673
aa(lp4267
g691
ag693
aa(lp4268
a(lp4269
g693
aa(lp4270
g3
aa(lp4271
g3467
aa(lp4272
a(lp4273
g3
ag3231
aa(lp4274
a(lp4275
g12
aa(lp4276
g4079
ag3467
aa(lp4277
g3706
ag4079
ag3467
aa(lp4278
g317
aa(lp4279
g223
aa(lp4280
g1365
ag15
ag223
aa(lp4281
a(lp4282
a(lp4283
a(lp4284
g18
ag691
aa(lp4285
g2068
ag457
ag3018
aa(lp4286
a(lp4287
a(lp4288
g50
ag2466
ag2467
aa(lp4289
a(lp4290
g3268
aa(lp4291
g4079
ag3467
aa(lp4292
a(lp4293
a(lp4294
g2068
ag457
ag3018
ag706
aa(lp4295
g71
ag705
ag691
ag43
aa(lp4296
g50
ag3
ag7
ag1013
ag2206
aa(lp4297
g71
ag7
ag3018
aa(lp4298
g374
ag705
aa(lp4299
g667
ag777
aa(lp4300
g2068
ag54
ag100
ag12
ag3018
aa(lp4301
a(lp4302
g15
ag3228
ag7
aa(lp4303
g3467
ag3231
aa(lp4304
g1864
ag23
aa(lp4305
a(lp4306
a(lp4307
g691
aa(lp4308
g510
ag2068
ag1447
aa(lp4309
g3268
ag3467
ag4102
aa(lp4310
g223
ag3695
ag3467
aa(lp4311
g223
ag3695
ag7
aa(lp4312
g1865
ag3
ag3268
ag4079
ag3228
ag7
aa(lp4313
g691
aa(lp4314
a(lp4315
g714
ag693
aa(lp4316
a(lp4317
g47
ag693
aa(lp4318
g691
ag2419
ag3231
aa(lp4319
g691
aa(lp4320
g899
ag691
ag43
ag693
ag4079
ag189
aa(lp4321
g2554
aa(lp4322
a(lp4323
g2466
aa(lp4324
a(lp4325
g1365
ag223
aa(lp4326
g18
ag11
aa(lp4327
a(lp4328
a(lp4329
g577
ag3
aa(lp4330
g866
ag577
ag11
ag15
ag223
ag317
ag7
ag2554
aa(lp4331
g11
ag15
ag223
aa(lp4332
g969
ag15
ag1028
aa(lp4333
g969
ag223
aa(lp4334
a(lp4335
g693
aa(lp4336
g714
aa(lp4337
a(lp4338
g695
aa(lp4339
g188
ag781
ag2726
ag153
aa(lp4340
a(lp4341
a(lp4342
g3018
ag706
aa(lp4343
g969
aa(lp4344
g12
ag1824
aa(lp4345
g3695
ag777
ag86
ag321
aa(lp4346
g3268
ag3231
aa(lp4347
g3268
aa(lp4348
g691
aa(lp4349
a(lp4350
g188
ag2726
aa(lp4351
g188
ag781
ag3228
ag7
ag1013
ag2206
ag153
aa(lp4352
g39
ag40
aa(lp4353
a(lp4354
g3467
ag4102
aa(lp4355
a(lp4356
a(lp4357
g3228
aa(lp4358
g667
ag121
aa(lp4359
g2419
aa(lp4360
g15
ag7
aa(lp4361
a(lp4362
a(lp4363
a(lp4364
g691
ag23
aa(lp4365
g691
aa(lp4366
g691
aa(lp4367
a(lp4368
a(lp4369
g47
ag691
aa(lp4370
g47
ag3268
aa(lp4371
a(lp4372
a(lp4373
g693
aa(lp4374
g3018
ag706
aa(lp4375
a(lp4376
g3018
aa(lp4377
g9
ag3018
aa(lp4378
g667
ag3018
aa(lp4379
g15
ag9
ag12
aa(lp4380
g3018
aa(lp4381
g3228
ag3467
ag12
aa(lp4382
g691
ag43
ag4079
ag3467
aa(lp4383
a(lp4384
a(lp4385
a(lp4386
a(lp4387
g9
aa(lp4388
a(lp4389
g969
aa(lp4390
g969
ag15
aa(lp4391
a(lp4392
g695
ag691
aa(lp4393
g3
aa(lp4394
g39
ag40
ag3
aa(lp4395
g3706
ag47
ag778
ag693
ag54
aa(lp4396
g510
ag427
ag3
ag3228
aa(lp4397
a(lp4398
g3
ag2419
ag7
aa(lp4399
g1824
aa(lp4400
g11
ag15
ag12
aa(lp4401
a(lp4402
g15
ag312
aa(lp4403
g15
aa(lp4404
g12
aa(lp4405
g79
ag11
ag15
aa(lp4406
g3231
aa(lp4407
a(lp4408
a(lp4409
g9
ag3276
ag3231
aa(lp4410
g691
aa(lp4411
g188
ag2726
aa(lp4412
g188
ag1797
ag2068
ag47
aa(lp4413
g188
ag153
aa(lp4414
g103
ag2726
ag7
ag771
ag153
aa(lp4415
g188
ag153
aa(lp4416
g691
aa(lp4417
g705
ag714
aa(lp4418
a(lp4419
a(lp4420
a(lp4421
g374
ag1447
ag12
aa(lp4422
a(lp4423
g4079
aa(lp4424
a(lp4425
a(lp4426
g4079
ag3467
ag12
aa(lp4427
a(lp4428
g3268
aa(lp4429
a(lp4430
g691
aa(lp4431
g12
aa(lp4432
g188
ag2726
ag1013
ag2206
ag153
aa(lp4433
g188
ag153
aa(lp4434
g969
ag47
aa(lp4435
a(lp4436
g3706
ag1042
ag693
aa(lp4437
g71
ag778
aa(lp4438
g691
aa(lp4439
g691
aa(lp4440
g7
aa(lp4441
g15
ag32
ag3
ag43
ag326
ag7
aa(lp4442
g15
ag691
ag4079
ag3467
aa(lp4443
g374
aa(lp4444
a(lp4445
g899
aa(lp4446
a(lp4447
g3268
aa(lp4448
g969
aa(lp4449
a(lp4450
g695
aa(lp4451
a(lp4452
g691
aa(lp4453
g3
ag673
aa(lp4454
g705
aa(lp4455
g47
aa(lp4456
g705
aa(lp4457
g705
aa(lp4458
g188
ag2726
ag153
aa(lp4459
g3706
ag778
ag693
aa(lp4460
g639
aa(lp4461
g693
aa(lp4462
g71
ag705
ag714
aa(lp4463
g40
aa(lp4464
a(lp4465
g15
ag3695
aa(lp4466
g3467
ag4102
aa(lp4467
g4079
ag3467
aa(lp4468
g12
aa(lp4469
g188
ag2726
ag3231
aa(lp4470
a(lp4471
a(lp4472
a(lp4473
g691
aa(lp4474
g4079
ag3228
ag12
aa(lp4475
g691
ag3228
aa(lp4476
g691
ag3467
aa(lp4477
a(lp4478
g691
ag2700
aa(lp4479
g691
ag4105
ag2578
ag54
ag12
aa(lp4480
g1590
aa(lp4481
g3
ag691
aa(lp4482
g2578
aa(lp4483
g3268
ag2700
ag2578
ag3228
ag12
aa(lp4484
g3
ag3231
aa(lp4485
a(lp4486
g427
ag3
ag43
ag4079
ag3276
ag3467
aa(lp4487
g79
ag11
ag15
ag4105
ag12
aa(lp4488
g692
ag51
ag52
ag693
ag4
aa(lp4489
a(lp4490
g3695
ag188
ag667
ag3467
ag3018
aa(lp4491
g714
ag693
ag3228
ag12
aa(lp4492
g3268
ag3228
ag12
aa(lp4493
g4105
aa(lp4494
a(lp4495
g691
ag4105
aa(lp4496
g4105
ag12
aa(lp4497
g9
ag3
ag691
aa(lp4498
g15
ag691
ag4105
aa(lp4499
g4105
aa(lp4500
a(lp4501
g121
aa(lp4502
g691
aa(lp4503
g3
ag3228
aa(lp4504
g3
ag3268
aa(lp4505
a(lp4506
a(lp4507
g692
ag51
ag52
ag693
aa(lp4508
g691
aa(lp4509
g691
aa(lp4510
a(lp4511
g3
ag691
aa(lp4512
g586
ag1013
aa(lp4513
g693
ag4079
aa(lp4514
g12
aa(lp4515
g705
ag4079
aa(lp4516
g43
ag4079
aa(lp4517
g667
ag3018
aa(lp4518
g3
ag55
ag771
ag1013
ag2206
ag153
aa(lp4519
g50
aS'methodological_guidance'
p4520
ag4079
ag7
aa(lp4521
a(lp4522
g691
ag41
aa(lp4523
a(lp4524
a(lp4525
a(lp4526
a(lp4527
g15
ag12
aa(lp4528
a(lp4529
g4105
ag4079
aa(lp4530
g691
aa(lp4531
g7
aa(lp4532
a(lp4533
g693
aa(lp4534
a(lp4535
g223
ag23
aa(lp4536
g582
ag6
ag973
ag693
aa(lp4537
g691
ag973
ag693
aa(lp4538
g691
ag3268
aa(lp4539
g9
ag693
ag86
aa(lp4540
g3695
ag12
aa(lp4541
g79
ag18
ag15
ag1717
ag457
aa(lp4542
g11
ag705
ag3695
ag7
ag2326
aa(lp4543
g691
aa(lp4544
g693
aa(lp4545
g714
ag47
ag693
aa(lp4546
g3
ag691
aa(lp4547
g705
aa(lp4548
g71
ag3706
ag1042
ag693
aa(lp4549
g582
aa(lp4550
g7
aa(lp4551
a(lp4552
a(lp4553
g3695
aa(lp4554
g1365
aa(lp4555
g667
ag457
ag321
ag3018
aa(lp4556
g188
ag667
ag3018
aa(lp4557
g691
aa(lp4558
a(lp4559
g4105
aa(lp4560
g12
aa(lp4561
a(lp4562
a(lp4563
a(lp4564
a(lp4565
g4105
aa(lp4566
g15
ag223
ag4105
aa(lp4567
g4105
aa(lp4568
a(lp4569
g846
ag705
aa(lp4570
g705
aa(lp4571
g705
ag510
aa(lp4572
a(lp4573
g969
ag586
ag1447
aa(lp4574
g969
ag1110
aa(lp4575
g691
aa(lp4576
g3
aa(lp4577
a(lp4578
g40
aa(lp4579
g9
ag973
aa(lp4580
g696
aa(lp4581
g973
aa(lp4582
a(lp4583
a(lp4584
a(lp4585
g4102
aa(lp4586
a(lp4587
g9
ag1447
ag3962
aa(lp4588
g23
aa(lp4589
a(lp4590
g12
aa(lp4591
g969
ag1110
aa(lp4592
a(lp4593
g695
ag3
ag673
aa(lp4594
g15
ag2554
aa(lp4595
g3691
ag3228
ag12
aa(lp4596
a(lp4597
a(lp4598
g691
aa(lp4599
g691
aa(lp4600
g691
aa(lp4601
a(lp4602
a(lp4603
g103
aa(lp4604
g691
ag520
aa(lp4605
g11
aa(lp4606
g15
ag3
ag3706
ag43
ag4079
ag3467
aa(lp4607
g9
ag47
ag43
ag4105
ag4079
aa(lp4608
a(lp4609
g223
ag3695
aa(lp4610
g43
aa(lp4611
g4079
aa(lp4612
a(lp4613
g15
ag4105
aa(lp4614
g86
aa(lp4615
a(lp4616
g15
aa(lp4617
g4105
aa(lp4618
g705
aa(lp4619
g582
aa(lp4620
g261
ag914
ag1447
aa(lp4621
g582
aa(lp4622
a(lp4623
g582
ag691
ag693
aa(lp4624
a(lp4625
g4102
aa(lp4626
g4105
aa(lp4627
g1865
ag188
ag1797
ag9
aa(lp4628
g1013
ag2206
ag153
aa(lp4629
g3
ag3706
ag43
ag4079
ag12
aa(lp4630
g3695
ag23
aa(lp4631
a(lp4632
g3695
ag23
aa(lp4633
g223
ag12
ag321
aa(lp4634
g3228
aa(lp4635
a(lp4636
a(lp4637
a(lp4638
a(lp4639
g705
ag4079
ag7
ag55
ag1013
ag2206
ag3018
aa(lp4640
g3018
aa(lp4641
a(lp4642
a(lp4643
g705
aa(lp4644
g223
ag2466
ag2467
aa(lp4645
a(lp4646
a(lp4647
a(lp4648
g223
ag7
ag2326
aa(lp4649
g18
ag11
ag15
ag223
aa(lp4650
a(lp4651
g18
ag15
ag3695
ag188
ag1797
ag12
aa(lp4652
g969
ag3695
ag714
aa(lp4653
g321
aa(lp4654
g15
aa(lp4655
g15
ag223
aa(lp4656
g15
ag4105
ag86
aa(lp4657
a(lp4658
g969
ag9
aa(lp4659
g4102
aa(lp4660
g4079
ag3228
ag4102
aa(lp4661
a(lp4662
g2727
ag12
aa(lp4663
g3268
aa(lp4664
a(lp4665
g71
ag1042
ag43
ag693
aa(lp4666
a(lp4667
g1447
aa(lp4668
a(lp4669
g691
ag4105
aa(lp4670
a(lp4671
g969
ag693
ag3962
ag3228
ag12
aa(lp4672
a(lp4673
a(lp4674
g4079
aa(lp4675
g12
aa(lp4676
a(lp4677
g973
ag4102
aa(lp4678
a(lp4679
g4105
aa(lp4680
g3268
ag3467
aa(lp4681
g15
ag582
ag47
ag1447
aa(lp4682
g188
ag1824
aa(lp4683
a(lp4684
a(lp4685
a(lp4686
a(lp4687
g3691
aa(lp4688
a(lp4689
g3706
ag1042
ag778
ag43
ag693
aa(lp4690
g12
aa(lp4691
g969
aa(lp4692
g705
ag691
aa(lp4693
g3695
aa(lp4694
g3228
aa(lp4695
a(lp4696
g23
aa(lp4697
g969
ag693
ag3691
ag2726
ag4079
aa(lp4698
a(lp4699
a(lp4700
a(lp4701
g691
aa(lp4702
g691
aa(lp4703
g691
ag326
aa(lp4704
g2338
ag96
aa(lp4705
g52
aa(lp4706
g691
ag717
aa(lp4707
a(lp4708
g582
ag691
ag693
aa(lp4709
g3228
aa(lp4710
a(lp4711
a(lp4712
g4079
ag1824
aa(lp4713
g717
aa(lp4714
g9
aa(lp4715
a(lp4716
g2726
aa(lp4717
a(lp4718
g103
ag1447
ag3467
ag7
ag23
aa(lp4719
g15
ag153
aa(lp4720
g3691
aa(lp4721
a(lp4722
g4105
aa(lp4723
g969
ag3
ag691
ag3691
ag2726
ag7
aa(lp4724
a(lp4725
g188
ag2726
ag3228
aa(lp4726
g973
ag3228
aa(lp4727
a(lp4728
g4102
aa(lp4729
g2726
ag4079
ag7
ag1013
aa(lp4730
a(lp4731
a(lp4732
g71
ag3706
ag1042
ag693
aa(lp4733
a(lp4734
g3706
ag1042
ag44
aa(lp4735
g510
ag2068
ag86
ag520
aa(lp4736
g846
ag705
ag86
aa(lp4737
a(lp4738
g3691
aa(lp4739
a(lp4740
a(lp4741
g11
aa(lp4742
g4079
aa(lp4743
g4079
aa(lp4744
g223
aa(lp4745
g2727
ag86
aa(lp4746
g121
ag3228
aa(lp4747
g103
ag2726
ag1013
aa(lp4748
g582
ag691
aa(lp4749
g691
ag3268
ag4105
aa(lp4750
g969
ag3
ag691
ag3691
ag2726
ag7
aa(lp4751
a(lp4752
a(lp4753
a(lp4754
g2726
ag3228
aa(lp4755
g527
aa(lp4756
g714
ag899
aa(lp4757
g969
aa(lp4758
g4079
aa(lp4759
a(lp4760
g4102
aa(lp4761
g18
ag15
ag4105
aa(lp4762
g18
ag15
ag223
ag9
aa(lp4763
g11
ag12
ag7
aa(lp4764
g846
ag705
aa(lp4765
a(lp4766
a(lp4767
g691
aa(lp4768
g15
ag410
aa(lp4769
g691
ag2700
aa(lp4770
g691
aa(lp4771
g1590
aa(lp4772
g3
ag691
aa(lp4773
g2578
aa(lp4774
g3268
ag2700
ag3228
ag12
aa(lp4775
a(lp4776
g3
ag4079
ag3276
ag3467
aa(lp4777
g79
ag11
ag15
ag4105
ag12
aa(lp4778
g692
ag51
ag52
ag693
ag4
aa(lp4779
g691
ag2700
aa(lp4780
g691
aa(lp4781
g3268
aa(lp4782
a(lp4783
a(lp4784
g691
aa(lp4785
a(lp4786
g3
ag691
aa(lp4787
g4101
ag86
aa(lp4788
g15
ag4105
aa(lp4789
g691
aa(lp4790
a(lp4791
g691
ag3268
aa(lp4792
g691
aa(lp4793
a(lp4794
a(lp4795
a(lp4796
g103
ag7
aa(lp4797
a(lp4798
a(lp4799
a(lp4800
g455
ag121
ag3
ag12
aa(lp4801
a(lp4802
g3
aa(lp4803
g691
aa(lp4804
g973
ag4101
aa(lp4805
g691
aa(lp4806
g333
ag691
aa(lp4807
g1797
aa(lp4808
g7
aa(lp4809
a(lp4810
g43
ag3268
ag4079
aa(lp4811
a(lp4812
a(lp4813
g47
ag691
aa(lp4814
g582
ag3268
aa(lp4815
g691
aa(lp4816
g717
aa(lp4817
g691
aa(lp4818
g582
ag691
aa(lp4819
g714
ag410
aa(lp4820
g47
ag691
aa(lp4821
g3
ag691
ag2305
aa(lp4822
g582
ag691
aa(lp4823
a(lp4824
a(lp4825
a(lp4826
a(lp4827
g1864
ag188
ag1797
ag691
ag43
ag4079
ag3467
ag1824
aa(lp4828
g691
ag43
ag2338
ag4079
ag3467
aa(lp4829
g455
ag1797
ag3276
ag3467
ag3018
ag706
aa(lp4830
g188
ag691
ag3467
ag1824
aa(lp4831
g3620
ag2248
ag188
ag457
ag137
aa(lp4832
g9
ag3
ag43
ag4520
ag4079
ag3467
aa(lp4833
g3695
ag188
ag1797
ag9
aa(lp4834
g3
ag55
ag771
ag1013
ag2206
ag153
aa(lp4835
g103
ag1013
aa(lp4836
g9
ag691
ag12
ag7
ag3018
aa(lp4837
a(lp4838
g866
ag317
ag3695
aa(lp4839
a(lp4840
a(lp4841
g3268
aa(lp4842
g121
ag973
ag3268
ag4101
ag2305
ag12
aa(lp4843
a(lp4844
a(lp4845
g691
aa(lp4846
g582
aa(lp4847
g582
ag714
ag691
aa(lp4848
g47
aa(lp4849
g714
ag691
aa(lp4850
g691
aa(lp4851
g582
aa(lp4852
a(lp4853
g4079
ag3467
aa(lp4854
g3
ag582
ag714
aa(lp4855
g2419
aa(lp4856
g586
ag973
ag1447
aa(lp4857
g714
aa(lp4858
g3620
aa(lp4859
g510
ag2068
aa(lp4860
a(lp4861
g714
aa(lp4862
a(lp4863
g691
aa(lp4864
g582
aa(lp4865
a(lp4866
g103
aa(lp4867
a(lp4868
a(lp4869
g691
aa(lp4870
g4079
aa(lp4871
g691
aa(lp4872
g691
aa(lp4873
g3620
aa(lp4874
g12
aa(lp4875
g333
ag4102
aa(lp4876
g79
ag11
ag3695
ag4102
ag12
aa(lp4877
g866
ag1365
ag11
ag15
ag223
ag333
ag4079
ag2727
aa(lp4878
g3695
ag100
aa(lp4879
g223
ag333
ag317
ag846
ag3695
aa(lp4880
g691
ag12
ag7
ag2326
aa(lp4881
g457
aa(lp4882
g714
ag691
aa(lp4883
g969
ag15
ag1110
ag717
aa(lp4884
g969
ag15
ag333
ag705
ag1110
ag586
aa(lp4885
g705
ag370
aa(lp4886
g705
ag7
aa(lp4887
g846
ag705
ag3
ag691
aa(lp4888
g705
ag370
ag100
aa(lp4889
a(lp4890
g582
aa(lp4891
g801
ag695
aa(lp4892
a(lp4893
a(lp4894
a(lp4895
g103
aa(lp4896
g3467
aa(lp4897
g15
ag4105
aa(lp4898
g15
ag4105
aa(lp4899
g15
aa(lp4900
g457
aa(lp4901
a(lp4902
g1865
ag103
aa(lp4903
g691
aa(lp4904
g705
ag714
aa(lp4905
g899
aa(lp4906
a(lp4907
a(lp4908
g4101
ag1013
aa(lp4909
a(lp4910
g333
ag4101
ag153
aa(lp4911
g4101
aa(lp4912
a(lp4913
g15
ag4105
aa(lp4914
g4105
aa(lp4915
g969
ag846
ag705
ag714
aa(lp4916
a(lp4917
a(lp4918
g3
aa(lp4919
g3
ag86
aa(lp4920
g9
ag103
ag3231
aa(lp4921
a(lp4922
a(lp4923
g714
aa(lp4924
g691
aa(lp4925
a(lp4926
a(lp4927
g3268
aa(lp4928
a(lp4929
g2466
ag2467
aa(lp4930
g43
ag4079
ag3467
aa(lp4931
a(lp4932
a(lp4933
g188
ag793
ag4520
ag4079
ag12
aa(lp4934
g969
ag3695
ag2727
aa(lp4935
g691
aa(lp4936
a(lp4937
a(lp4938
g374
ag3695
aa(lp4939
a(lp4940
g15
ag562
ag12
ag86
ag7
aa(lp4941
a(lp4942
g3276
aa(lp4943
g3276
ag3467
aa(lp4944
g693
ag1447
aa(lp4945
g9
ag691
ag973
aa(lp4946
a(lp4947
g714
ag691
aa(lp4948
a(lp4949
g1865
ag121
ag47
ag3467
aa(lp4950
g969
ag15
ag691
aa(lp4951
g969
aa(lp4952
a(lp4953
a(lp4954
a(lp4955
g188
ag793
ag4520
ag4079
ag12
aa(lp4956
g969
ag3695
ag2727
aa(lp4957
g691
aa(lp4958
a(lp4959
a(lp4960
g374
ag3695
aa(lp4961
a(lp4962
g15
ag562
ag12
ag86
ag7
aa(lp4963
a(lp4964
g3276
aa(lp4965
g3276
ag3467
aa(lp4966
g693
ag1447
aa(lp4967
g9
ag691
ag973
aa(lp4968
a(lp4969
g714
ag691
aa(lp4970
a(lp4971
g1865
ag121
ag47
ag3467
aa(lp4972
g969
ag15
ag691
aa(lp4973
g969
aa(lp4974
a(lp4975
a(lp4976
g691
ag2700
aa(lp4977
g9
ag12
aa(lp4978
g3695
ag3467
ag12
aa(lp4979
g714
aa(lp4980
g12
aa(lp4981
a(lp4982
g714
ag691
aa(lp4983
a(lp4984
g188
aa(lp4985
g714
ag691
aa(lp4986
g374
aa(lp4987
g714
ag691
ag12
aa(lp4988
g12
ag321
aa(lp4989
g374
ag4101
aa(lp4990
g12
aa(lp4991
g188
aa(lp4992
a(lp4993
a(lp4994
g1130
ag43
ag3268
ag3467
ag12
aa(lp4995
g4105
ag2305
aa(lp4996
g3
ag3268
ag1447
ag3962
aa(lp4997
g3268
aa(lp4998
a(lp4999
g121
ag3228
aa(lp5000
a(lp5001
g714
aa(lp5002
a(lp5003
g582
aa(lp5004
g969
ag15
ag705
ag714
aa(lp5005
a(lp5006
g899
aa(lp5007
a(lp5008
a(lp5009
a(lp5010
a(lp5011
a(lp5012
a(lp5013
g1447
aa(lp5014
a(lp5015
g3
ag691
ag4101
aa(lp5016
a(lp5017
g667
ag54
aa(lp5018
g691
ag4101
ag1824
aa(lp5019
g691
ag3268
ag2578
ag7
aa(lp5020
g3
ag54
aa(lp5021
a(lp5022
g12
aa(lp5023
g47
ag23
aa(lp5024
g23
aa(lp5025
g781
ag4079
ag45
aa(lp5026
a(lp5027
g23
aa(lp5028
g3268
aa(lp5029
g582
aa(lp5030
g705
ag714
aa(lp5031
a(lp5032
g12
aa(lp5033
a(lp5034
a(lp5035
g3268
ag2206
aa(lp5036
g2305
aa(lp5037
g1447
aa(lp5038
a(lp5039
g12
aa(lp5040
a(lp5041
g3695
aa(lp5042
a(lp5043
a(lp5044
a(lp5045
g586
ag714
aa(lp5046
a(lp5047
g3695
ag691
aa(lp5048
a(lp5049
a(lp5050
a(lp5051
g15
ag4105
aa(lp5052
a(lp5053
g714
aa(lp5054
a(lp5055
a(lp5056
g374
ag3228
aa(lp5057
g705
ag3691
ag4079
aa(lp5058
g374
ag4079
aa(lp5059
g4079
aa(lp5060
g100
aa(lp5061
a(lp5062
a(lp5063
a(lp5064
a(lp5065
a(lp5066
a(lp5067
g3695
aa(lp5068
a(lp5069
g3268
aa(lp5070
g1447
aa(lp5071
g714
aa(lp5072
a(lp5073
a(lp5074
g223
ag582
ag714
ag691
aa(lp5075
g582
ag714
aa(lp5076
g582
ag899
ag1447
aa(lp5077
g1447
aa(lp5078
a(lp5079
g582
aa(lp5080
g714
aa(lp5081
g714
ag23
aa(lp5082
a(lp5083
a(lp5084
a(lp5085
a(lp5086
a(lp5087
g691
aa(lp5088
g12
aa(lp5089
a(lp5090
g3
ag691
aa(lp5091
g691
ag2578
aa(lp5092
g3268
ag2700
ag3228
ag12
aa(lp5093
a(lp5094
g427
ag3
ag43
ag4079
ag3276
ag3467
aa(lp5095
g79
ag11
ag4105
ag12
aa(lp5096
g692
ag51
ag52
ag693
ag4
aa(lp5097
g691
ag2700
aa(lp5098
g3695
ag714
ag691
ag3268
ag4079
ag3467
ag321
aa(lp5099
a(lp5100
g4079
aa(lp5101
g12
aa(lp5102
g4101
ag562
aa(lp5103
g4101
ag562
ag1824
aa(lp5104
g4101
ag562
ag86
aa(lp5105
a(lp5106
g15
ag333
ag4105
aa(lp5107
g792
ag781
ag125
ag793
ag12
aa(lp5108
a(lp5109
a(lp5110
a(lp5111
g3
ag95
aa(lp5112
a(lp5113
a(lp5114
g3695
ag12
aa(lp5115
g3695
aa(lp5116
g973
ag1447
aa(lp5117
g3695
aa(lp5118
g223
ag3695
ag3268
ag100
aa(lp5119
g15
ag4079
ag3467
aa(lp5120
g3695
ag12
aa(lp5121
g3695
ag103
ag4105
ag2727
ag12
aa(lp5122
g2068
ag3
ag2419
ag370
ag597
ag100
ag189
aa(lp5123
g3
aa(lp5124
a(lp5125
a(lp5126
a(lp5127
g223
ag3
aa(lp5128
g9
aa(lp5129
g3620
ag3695
aa(lp5130
g866
aa(lp5131
g15
ag223
ag3695
ag12
aa(lp5132
g3695
ag52
ag4079
ag3276
ag4102
ag3231
aa(lp5133
g43
aa(lp5134
g3620
ag3695
ag510
aa(lp5135
g3695
aa(lp5136
g15
ag3695
aa(lp5137
g866
ag577
ag969
ag1717
ag43
ag4102
ag3231
ag12
ag7
aa(lp5138
g705
ag691
ag2554
aa(lp5139
a(lp5140
g188
aa(lp5141
g3
ag55
ag771
ag1013
ag2206
ag153
aa(lp5142
g3
ag103
aa(lp5143
g3
ag103
ag189
aa(lp5144
g691
ag43
ag4520
ag4079
ag3231
ag12
ag3018
aa(lp5145
g9
ag2419
aa(lp5146
a(lp5147
a(lp5148
g1717
ag3695
ag188
aa(lp5149
a(lp5150
a(lp5151
a(lp5152
a(lp5153
g793
aa(lp5154
g125
ag793
ag273
aa(lp5155
a(lp5156
a(lp5157
g691
ag4105
aa(lp5158
g4079
ag370
ag100
aa(lp5159
g86
ag7
aa(lp5160
a(lp5161
g3620
ag1717
ag457
ag777
ag370
ag597
ag100
aa(lp5162
a(lp5163
g969
ag15
ag4079
aa(lp5164
g4105
ag3276
aa(lp5165
g11
ag12
aa(lp5166
g9
ag4101
ag95
ag2727
ag96
ag86
ag7
aa(lp5167
g188
aa(lp5168
g2248
ag188
ag1797
ag321
aa(lp5169
g188
aa(lp5170
g3695
ag188
aa(lp5171
g188
ag7
aa(lp5172
g188
ag321
aa(lp5173
g1797
ag7
aa(lp5174
a(lp5175
g44
aa(lp5176
g71
ag3
aa(lp5177
g3
aa(lp5178
g1865
ag121
aa(lp5179
g121
ag9
ag3231
aa(lp5180
g3695
aa(lp5181
g3695
aa(lp5182
g3695
ag1824
aa(lp5183
g1717
aa(lp5184
g1717
aa(lp5185
g15
ag1717
ag457
aa(lp5186
g457
ag9
aa(lp5187
g1717
ag12
aa(lp5188
g705
ag3691
ag1447
aa(lp5189
g3695
aa(lp5190
a(lp5191
a(lp5192
a(lp5193
g969
ag15
aa(lp5194
g3467
aa(lp5195
g4105
aa(lp5196
g121
ag86
aa(lp5197
g4105
aa(lp5198
g18
ag2021
aa(lp5199
g11
ag333
aa(lp5200
g4079
aa(lp5201
g4079
aa(lp5202
a(lp5203
a(lp5204
a(lp5205
g41
aa(lp5206
g705
aa(lp5207
g705
aa(lp5208
g846
ag705
aa(lp5209
g969
ag3620
ag370
aa(lp5210
g691
aa(lp5211
a(lp5212
a(lp5213
a(lp5214
g11
ag3467
ag86
aa(lp5215
a(lp5216
g47
aa(lp5217
a(lp5218
g2419
aa(lp5219
a(lp5220
a(lp5221
g11
aa(lp5222
g792
ag125
ag189
aa(lp5223
g125
aa(lp5224
a(lp5225
g95
ag96
aa(lp5226
g792
ag125
ag793
ag12
ag1824
aa(lp5227
g125
ag793
aa(lp5228
g188
aa(lp5229
g188
aa(lp5230
a(lp5231
a(lp5232
g32
ag3
ag45
aa(lp5233
g32
ag3
aa(lp5234
g41
aa(lp5235
g969
aa(lp5236
a(lp5237
g7
aa(lp5238
a(lp5239
g23
aa(lp5240
g18
aa(lp5241
a(lp5242
g4105
aa(lp5243
g969
ag705
ag3695
ag9
aa(lp5244
g12
ag2021
aa(lp5245
g2021
aa(lp5246
g4105
ag3467
ag7
aa(lp5247
g11
ag12
ag2021
aa(lp5248
g11
ag223
ag9
ag12
ag7
ag23
aa(lp5249
g4101
aa(lp5250
a(lp5251
g4101
ag3467
aa(lp5252
g370
ag562
aa(lp5253
g1447
ag3467
aa(lp5254
a(lp5255
a(lp5256
g56
aa(lp5257
g370
ag56
aa(lp5258
g9
ag56
aa(lp5259
g95
ag96
ag56
aa(lp5260
a(lp5261
g121
ag100
aa(lp5262
g54
ag96
aa(lp5263
a(lp5264
g3
ag3706
ag43
ag4520
ag4079
aa(lp5265
a(lp5266
a(lp5267
g43
ag4520
ag4079
ag3231
aa(lp5268
g9
aa(lp5269
g333
ag7
aa(lp5270
a(lp5271
g705
aa(lp5272
g3695
aa(lp5273
g15
ag3
aa(lp5274
g969
aa(lp5275
g9
ag562
ag12
aa(lp5276
a(lp5277
a(lp5278
a(lp5279
g15
aa(lp5280
g9
ag4520
ag4079
aa(lp5281
g4079
aa(lp5282
g3695
aa(lp5283
g3695
ag12
aa(lp5284
g3695
ag12
aa(lp5285
g3695
ag4079
aa(lp5286
g3695
ag3467
aa(lp5287
a(lp5288
a(lp5289
g1824
aa(lp5290
g11
ag12
ag86
aa(lp5291
a(lp5292
g23
aa(lp5293
a(lp5294
g3467
ag12
aa(lp5295
g103
ag973
aa(lp5296
g3467
aa(lp5297
a(lp5298
g47
ag1447
aa(lp5299
g696
ag691
ag3467
aa(lp5300
g121
aa(lp5301
g15
ag7
aa(lp5302
g708
aa(lp5303
g3695
ag777
ag23
ag1824
aa(lp5304
g11
ag333
ag12
ag2021
ag1824
aa(lp5305
g597
ag2727
ag12
ag7
aa(lp5306
g12
aa(lp5307
g12
aa(lp5308
a(lp5309
a(lp5310
g15
ag12
aa(lp5311
g3695
ag691
aa(lp5312
g9
ag3
ag54
aa(lp5313
g3
ag3706
ag43
ag4520
ag4079
aa(lp5314
g9
ag3
ag3706
ag43
aa(lp5315
a(lp5316
g9
ag12
ag7
aa(lp5317
g12
aa(lp5318
a(lp5319
a(lp5320
a(lp5321
g705
aa(lp5322
g705
aa(lp5323
a(lp5324
a(lp5325
g3695
ag4079
ag12
aa(lp5326
g705
ag1447
aa(lp5327
a(lp5328
g4520
ag4079
aa(lp5329
g43
ag3231
aa(lp5330
g12
aa(lp5331
g188
aa(lp5332
a(lp5333
a(lp5334
a(lp5335
a(lp5336
a(lp5337
a(lp5338
a(lp5339
g3
aa(lp5340
g12
aa(lp5341
g3620
ag188
ag510
ag1797
ag3
ag1042
ag4079
aa(lp5342
a(lp5343
a(lp5344
a(lp5345
a(lp5346
a(lp5347
a(lp5348
a(lp5349
g3695
ag2068
ag777
aa(lp5350
g15
ag705
ag1717
ag457
ag3
aa(lp5351
g1864
ag374
ag3276
ag12
aa(lp5352
g3695
aa(lp5353
a(lp5354
a(lp5355
a(lp5356
a(lp5357
g95
ag96
ag12
aa(lp5358
g445
ag125
ag793
aa(lp5359
g3467
ag12
aa(lp5360
g410
aa(lp5361
g691
aa(lp5362
g2338
aa(lp5363
a(lp5364
a(lp5365
a(lp5366
g23
aa(lp5367
g2338
ag7
aa(lp5368
a(lp5369
a(lp5370
a(lp5371
a(lp5372
a(lp5373
g3620
aa(lp5374
a(lp5375
g705
aa(lp5376
g3467
ag4102
aa(lp5377
a(lp5378
a(lp5379
g12
aa(lp5380
a(lp5381
g4079
ag12
aa(lp5382
g3695
ag4079
ag12
aa(lp5383
g3695
aa(lp5384
g3695
ag1447
ag4079
aa(lp5385
g3695
ag9
ag4079
ag12
aa(lp5386
a(lp5387
g3695
ag7
aa(lp5388
g12
ag2021
aa(lp5389
a(lp5390
a(lp5391
a(lp5392
a(lp5393
a(lp5394
g846
ag71
ag705
ag1110
aa(lp5395
g100
ag189
aa(lp5396
g3467
aa(lp5397
g4079
aa(lp5398
g54
aa(lp5399
a(lp5400
g100
aa(lp5401
g3695
aa(lp5402
a(lp5403
a(lp5404
g3467
ag370
aa(lp5405
a(lp5406
a(lp5407
g223
ag846
ag3268
aa(lp5408
g223
ag7
aa(lp5409
g1824
aa(lp5410
g15
aa(lp5411
g4105
ag4079
aa(lp5412
a(lp5413
a(lp5414
g188
ag457
ag51
ag4101
aa(lp5415
g1717
aa(lp5416
a(lp5417
a(lp5418
g4101
aa(lp5419
g4101
aa(lp5420
g326
ag4105
ag370
aa(lp5421
g333
aa(lp5422
g18
ag4105
ag86
aa(lp5423
g15
ag4105
ag86
aa(lp5424
g969
ag4105
aa(lp5425
g846
ag4101
aa(lp5426
g9
ag370
aa(lp5427
g370
aa(lp5428
g15
ag4105
ag562
aa(lp5429
a(lp5430
g4101
ag86
aa(lp5431
g9
aa(lp5432
a(lp5433
a(lp5434
a(lp5435
g9
aa(lp5436
g223
ag3695
ag3467
aa(lp5437
g1447
ag3231
aa(lp5438
a(lp5439
a(lp5440
a(lp5441
a(lp5442
a(lp5443
g3695
aa(lp5444
g705
ag4101
aa(lp5445
g3695
aa(lp5446
a(lp5447
g3691
aa(lp5448
g3691
aa(lp5449
a(lp5450
g4079
aa(lp5451
g3695
aa(lp5452
a(lp5453
a(lp5454
g478
aa(lp5455
a(lp5456
g577
ag3
ag692
ag52
aa(lp5457
g3
aa(lp5458
a(lp5459
g3
ag582
aa(lp5460
g781
ag782
ag40
ag32
ag793
ag582
aa(lp5461
g40
ag3
ag47
aa(lp5462
g40
ag125
ag793
aa(lp5463
g582
ag673
ag467
ag51
ag52
aa(lp5464
a(lp5465
g582
aa(lp5466
g478
aa(lp5467
g50
ag40
ag47
aa(lp5468
g691
aa(lp5469
g582
aa(lp5470
a(lp5471
g3
ag12
aa(lp5472
a(lp5473
g100
aa(lp5474
g3
aa(lp5475
g3
ag520
aa(lp5476
g50
ag3
ag586
ag47
ag12
aa(lp5477
a(lp5478
g23
aa(lp5479
a(lp5480
g9
ag4
ag7
aa(lp5481
g11
aa(lp5482
a(lp5483
g9
ag3
aa(lp5484
a(lp5485
g9
ag478
aa(lp5486
g3
ag103
ag478
aa(lp5487
g12
aa(lp5488
a(lp5489
g9
ag582
aa(lp5490
g15
ag9
ag586
ag582
aa(lp5491
g582
aa(lp5492
g3
ag582
aa(lp5493
g582
aa(lp5494
g326
aa(lp5495
g3
ag586
ag582
ag47
ag54
ag12
aa(lp5496
g3
aa(lp5497
g40
ag582
aa(lp5498
a(lp5499
g333
ag582
ag7
aa(lp5500
g333
ag768
aa(lp5501
g3
ag582
ag692
ag52
aa(lp5502
g582
ag673
aa(lp5503
g47
aa(lp5504
a(lp5505
g3
aa(lp5506
g103
aa(lp5507
g3
ag582
aa(lp5508
a(lp5509
g582
aa(lp5510
g3
ag582
aa(lp5511
a(lp5512
g121
ag100
aa(lp5513
g18
ag3
ag582
ag7
aa(lp5514
g18
aa(lp5515
g18
ag11
ag15
aa(lp5516
g18
ag11
ag333
ag86
ag7
aa(lp5517
g121
ag9
ag1130
ag1447
ag95
ag54
ag12
ag7
aa(lp5518
g121
ag9
ag12
ag2021
ag86
ag7
aa(lp5519
g478
aa(lp5520
g41
aa(lp5521
a(lp5522
a(lp5523
a(lp5524
g333
ag3
ag12
aa(lp5525
g40
ag32
ag793
ag586
ag582
ag23
aa(lp5526
a(lp5527
g370
ag7
aa(lp5528
g777
ag9
aa(lp5529
a(lp5530
g50
ag3
ag582
aa(lp5531
g40
ag3
ag582
aa(lp5532
g582
aa(lp5533
a(lp5534
g15
ag9
aa(lp5535
g3
ag582
ag887
ag692
ag94
aS'option_c'
p5536
ag52
aa(lp5537
g3
ag582
ag41
aa(lp5538
g137
ag5536
ag43
aa(lp5539
g1130
ag887
ag467
ag312
ag5536
ag52
ag43
ag41
aa(lp5540
g1130
ag1042
ag5536
aa(lp5541
g121
ag692
ag5536
ag52
aa(lp5542
g1130
ag1042
aa(lp5543
g467
ag1042
ag5536
ag43
aa(lp5544
g3
ag1042
ag51
ag43
ag41
ag45
aa(lp5545
a(lp5546
a(lp5547
g39
ag41
aa(lp5548
g3
ag582
aa(lp5549
g50
aa(lp5550
g9
ag586
ag582
ag95
aa(lp5551
g15
ag9
aa(lp5552
g582
aa(lp5553
g15
ag9
ag40
ag3
ag582
aa(lp5554
a(lp5555
a(lp5556
g15
aa(lp5557
a(lp5558
g3
aa(lp5559
g223
ag9
ag3
ag639
ag582
ag691
aa(lp5560
g9
ag3
ag103
aa(lp5561
g223
ag3
ag478
ag6
aa(lp5562
a(lp5563
g582
aa(lp5564
a(lp5565
g478
aa(lp5566
a(lp5567
a(lp5568
g15
ag9
ag3
aa(lp5569
g32
ag3
aa(lp5570
g3
aa(lp5571
g3
ag582
aa(lp5572
g3
ag582
aa(lp5573
a(lp5574
g50
aa(lp5575
g3
aa(lp5576
g50
aa(lp5577
g12
aa(lp5578
g11
ag333
aa(lp5579
g11
aa(lp5580
g11
ag333
aa(lp5581
g586
aa(lp5582
g586
aa(lp5583
g478
ag586
aa(lp5584
g887
aa(lp5585
g3
ag467
ag5536
aa(lp5586
g582
ag887
ag94
ag52
aa(lp5587
a(lp5588
g370
ag597
ag189
aa(lp5589
g11
ag3
aa(lp5590
g53
aa(lp5591
g3
ag47
ag1447
ag12
aa(lp5592
a(lp5593
g410
aa(lp5594
a(lp5595
g15
ag9
ag478
ag582
ag12
aa(lp5596
g11
ag709
ag40
ag478
ag47
aa(lp5597
g3
ag23
aa(lp5598
g9
aa(lp5599
g6
aa(lp5600
g3
aa(lp5601
g333
ag96
ag12
ag7
ag56
aa(lp5602
g586
ag714
ag47
aa(lp5603
g586
ag47
aa(lp5604
g15
ag121
ag9
aa(lp5605
g3
ag95
ag45
aa(lp5606
g32
ag3
aa(lp5607
g3
aa(lp5608
g40
ag3
ag582
ag673
aa(lp5609
g3
ag586
ag582
aa(lp5610
g40
ag3
ag586
ag582
ag47
aa(lp5611
g582
aa(lp5612
a(lp5613
g1865
ag121
ag3
ag103
aa(lp5614
g43
aa(lp5615
g15
ag333
ag9
ag12
ag7
aa(lp5616
g410
aa(lp5617
g50
ag3
ag95
aa(lp5618
g3
ag586
ag12
aa(lp5619
a(lp5620
g2248
ag121
ag9
ag54
ag100
aa(lp5621
g32
ag3
ag793
ag586
ag582
ag887
ag94
aa(lp5622
g50
ag705
aa(lp5623
g705
ag582
aa(lp5624
g3
aa(lp5625
g223
ag100
aa(lp5626
a(lp5627
g582
aa(lp5628
g40
ag32
aa(lp5629
a(lp5630
a(lp5631
g582
aa(lp5632
g3
aa(lp5633
g705
ag9
ag3
ag586
ag691
ag692
ag52
ag12
aa(lp5634
g478
aa(lp5635
a(lp5636
a(lp5637
g50
ag3
ag478
ag582
ag47
aa(lp5638
a(lp5639
a(lp5640
g691
aa(lp5641
g705
ag3
ag586
ag691
aa(lp5642
g11
ag317
ag714
ag691
aa(lp5643
g51
ag52
ag4
aa(lp5644
a(lp5645
g705
ag189
aa(lp5646
g846
ag71
ag705
ag121
aa(lp5647
g71
ag705
ag1110
ag121
aa(lp5648
g705
ag1110
ag586
ag691
aa(lp5649
a(lp5650
g478
aa(lp5651
g121
aa(lp5652
a(lp5653
g100
ag7
aa(lp5654
g691
aa(lp5655
a(lp5656
g121
ag3
ag103
ag691
aa(lp5657
g3
ag7
aa(lp5658
g3
ag714
aa(lp5659
g691
aa(lp5660
g705
aa(lp5661
g3
aa(lp5662
g6
aa(lp5663
a(lp5664
a(lp5665
a(lp5666
a(lp5667
a(lp5668
g714
ag691
ag692
ag52
aa(lp5669
g121
ag9
ag691
ag7
aa(lp5670
g691
ag7
aa(lp5671
g691
aa(lp5672
g691
ag52
aa(lp5673
g467
ag733
ag43
aa(lp5674
g3
aa(lp5675
g9
ag125
aa(lp5676
g3
aa(lp5677
g3
ag691
aa(lp5678
a(lp5679
g3
aa(lp5680
a(lp5681
a(lp5682
g9
ag691
aa(lp5683
a(lp5684
a(lp5685
g9
ag714
aa(lp5686
g714
ag41
aa(lp5687
g11
ag9
ag714
ag12
aa(lp5688
g914
ag705
ag121
ag714
ag47
ag23
aa(lp5689
g709
ag705
ag9
ag562
aa(lp5690
g709
ag714
ag691
aa(lp5691
g15
ag121
ag714
ag467
ag86
aa(lp5692
g705
ag86
aa(lp5693
a(lp5694
g333
ag50
ag374
ag9
ag3
ag7
aa(lp5695
a(lp5696
g333
aa(lp5697
a(lp5698
g18
ag11
aa(lp5699
a(lp5700
g9
ag273
ag12
aa(lp5701
g9
ag1028
ag12
ag7
aa(lp5702
g691
ag12
ag7
aa(lp5703
g562
ag12
ag86
ag7
aa(lp5704
g9
ag7
aa(lp5705
g374
ag12
ag7
aa(lp5706
a(lp5707
g797
aa(lp5708
g714
ag7
aa(lp5709
g11
ag7
aa(lp5710
g714
aa(lp5711
a(lp5712
a(lp5713
g714
aa(lp5714
g18
ag15
ag797
aa(lp5715
g577
ag9
aa(lp5716
g125
ag3
ag793
ag189
ag12
aa(lp5717
a(lp5718
g11
aa(lp5719
a(lp5720
g1028
ag12
ag7
aa(lp5721
g11
ag137
ag12
ag7
aa(lp5722
a(lp5723
g7
aa(lp5724
a(lp5725
a(lp5726
g691
aa(lp5727
g9
ag3
ag51
ag52
ag12
aa(lp5728
a(lp5729
a(lp5730
g1028
ag7
aa(lp5731
a(lp5732
g121
ag137
ag312
aa(lp5733
g121
ag312
aa(lp5734
g9
ag95
ag54
ag96
ag86
aa(lp5735
g18
ag11
ag15
aa(lp5736
g18
ag7
aa(lp5737
g705
aa(lp5738
g691
ag1028
ag12
ag7
aa(lp5739
a(lp5740
a(lp5741
g11
ag714
ag7
aa(lp5742
g792
ag692
ag52
aa(lp5743
g3
ag798
aa(lp5744
a(lp5745
g798
aa(lp5746
a(lp5747
g691
ag692
ag52
ag23
ag520
aa(lp5748
g792
ag125
ag12
aa(lp5749
a(lp5750
g103
aa(lp5751
g18
ag11
ag7
aa(lp5752
g562
ag1028
ag12
ag86
ag7
aa(lp5753
g866
aa(lp5754
g7
aa(lp5755
g9
aa(lp5756
g9
aa(lp5757
a(lp5758
g3
ag23
aa(lp5759
a(lp5760
g125
aa(lp5761
g7
aa(lp5762
g1028
ag86
ag7
aa(lp5763
a(lp5764
g1028
aa(lp5765
a(lp5766
a(lp5767
a(lp5768
a(lp5769
a(lp5770
a(lp5771
g18
ag11
ag15
aa(lp5772
g714
aa(lp5773
a(lp5774
g86
aa(lp5775
a(lp5776
a(lp5777
g691
aa(lp5778
a(lp5779
g121
ag691
ag7
aa(lp5780
g3
aa(lp5781
a(lp5782
g223
ag705
ag9
ag3
ag12
ag7
aa(lp5783
g1865
ag455
ag9
aa(lp5784
g9
ag95
ag12
aa(lp5785
g15
ag121
ag86
aa(lp5786
g18
ag317
aa(lp5787
g9
ag4
ag95
ag54
ag96
ag12
aa(lp5788
g50
ag9
aa(lp5789
g9
ag792
ag3
ag692
ag52
ag7
aa(lp5790
g714
aa(lp5791
g7
aa(lp5792
g691
aa(lp5793
a(lp5794
a(lp5795
g50
aa(lp5796
g846
ag914
ag121
ag100
ag86
aa(lp5797
g50
ag914
aa(lp5798
g510
aa(lp5799
g3
ag137
aa(lp5800
g47
ag54
ag100
aa(lp5801
g261
ag709
ag714
ag54
aa(lp5802
a(lp5803
g709
ag691
aa(lp5804
g691
aa(lp5805
g709
ag714
ag326
aa(lp5806
g3
ag189
ag12
ag7
aa(lp5807
g15
ag333
ag326
ag7
ag23
aa(lp5808
g103
aa(lp5809
a(lp5810
g3
aa(lp5811
g705
ag714
ag691
ag7
ag1824
aa(lp5812
g317
ag71
ag705
ag121
ag714
ag691
ag370
ag12
ag7
ag321
aa(lp5813
g11
ag705
ag586
ag7
aa(lp5814
g9
ag714
aa(lp5815
g696
aa(lp5816
g3
aa(lp5817
a(lp5818
g54
aa(lp5819
g18
ag11
ag705
ag1865
ag121
ag3
aa(lp5820
g705
ag9
ag714
aa(lp5821
g714
ag691
aa.