(lp0
S'special_climate_change_fund'
p1
aS'non-annex_i_national_communications'
p2
aS'operating_entity'
p3
aS'adaptation_fund'
p4
aS'global_environment_facility'
p5
aS'financial_mechanism'
p6
aS'fund'
p7
aS'least_developed_countries'
p8
aS'special_climate_change_fund'
p9
aS'financial_resources'
p10
aS'policies_and_measures'
p11
aS'education'
p12
aS'additionality'
p13
aS'baseline'
p14
aS'nuclear'
p15
aS'certified_emission_reductions'
p16
aS'domestic_action'
p17
aS'clean_development_mechanism'
p18
aS'trigger'
p19
aS'enforcement'
p20
aS'compliance_system'
p21
aS'food'
p22
aS'gender'
p23
aS'ecosystem'
p24
aS'agriculture'
p25
aS'health'
p26
aS'water'
p27
aS'poverty'
p28
aS'sustainable_development'
p29
aS'indigenous_peoples'
p30
aS'women'
p31
aS'development'
p32
aS'ocean'
p33
aS'ozone'
p34
aS'reducing_emissions'
p35
aS'bubble'
p36
aS'greenhouse_gas_emissions'
p37
aS'gases'
p38
aS'co2'
p39
aS'montreal_protocol'
p40
aS'emissions'
p41
aS'differentiated_responsibilities'
p42
aS'future_commitments'
p43
aS'economies_in_transition'
p44
aS'berlin_mandate'
p45
aS'emissions_trading'
p46
aS'qelros'
p47
aS'flexibility_mechanisms'
p48
aS'flexibility'
p49
aS'assigned_amount_units'
p50
aS'kyoto_protocol'
p51
aS'second_commitment_period'
p52
aS'reforestation'
p53
aS'sink'
p54
aS'biodiversity'
p55
aS'forest_management'
p56
aS'afforestation'
p57
aS'desertification'
p58
aS'harvested_wood_products'
p59
aS'land_use'
p60
aS'forestry'
p61
aS'forest'
p62
aS'stabilization'
p63
aS'global_climate_observing_system'
p64
aS'uncertainty'
p65
aS'observing_systems'
p66
aS'models'
p67
aS'greenhouse_gas_concentrations'
p68
aS'bali_action_plan'
p69
aS'sectoral_approaches'
p70
aS'market_mechanisms'
p71
aS'climate_finance'
p72
aS'green_climate_fund'
p73
aS'cooperative_action'
p74
aS'shared_vision'
p75
aS'nationally_appropriate_mitigation_actions'
p76
aS'mitigation_actions'
p77
aS'renewable_energy'
p78
aS'energy'
p79
aS'investment'
p80
aS'innovation'
p81
aS'business'
p82
aS'intellectual_property_rights'
p83
aS'industry'
p84
aS'enabling_environment'
p85
aS'international_cooperation'
p86
aS'know-how'
p87
aS'energy_efficiency'
p88
aS'south-south'
p89
aS'technology'
p90
aS'research_and_development'
p91
aS'private_sector'
p92
aS'technology_transfer'
p93
aS'fuels'
p94
aS'transport'
p95
aS'fossil_fuels'
p96
aS'transportation'
p97
aS'bunker_fuels'
p98
aS'vulnerable'
p99
aS'small_island'
p100
aS'nairobi_work_programme'
p101
aS'article_9'
p102
a.