(lp0
S'vulnerability and adaptation actions'
p1
aS'technology transfer and energy'
p2
aS'cdm and carbon offsets'
p3
aS'models and ipcc'
p4
aS'transport sector'
p5
aS'ghg and emissions measure'
p6
aS'environmental and social impacts'
p7
aS'compliance and enforcement'
p8
aS'land use and forests'
p9
aS'kyoto protocol'
p10
aS'redd and post-kyoto'
p11
aS'adaptation funding and equity'
p12
a.