(lp0
S'special_climate_change_fund'
p1
aS'non-annex_i_national_communications'
p2
aS'operating_entity'
p3
aS'annex_i_national_communications'
p4
aS'napa'
p5
aS'adaptation_fund'
p6
aS'gef'
p7
aS'financial_mechanism'
p8
aS'funding'
p9
aS'new_technologies'
p10
aS'ldcs'
p11
aS'lcd_expert_group'
p12
aS'full_costs'
p13
aS'sccf'
p14
aS'ldc_fund'
p15
aS'financial_resources'
p16
aS'adaptation_needs'
p17
aS'policies_and_measures'
p18
aS'financing_adaptation'
p19
aS'importance_of_adaptation'
p20
aS'national_adaptation_programmes_of_action'
p21
aS'education'
p22
aS'adverse_effect_policy'
p23
aS'lack_of_progress'
p24
aS'adverse_effects/impacts'
p25
aS'prompt_start'
p26
aS'additionality'
p27
aS'baselines'
p28
aS'equitable_geographic_distribution'
p29
aS'biomass'
p30
aS'nuclear'
p31
aS'cer'
p32
aS'domestic_action'
p33
aS'supplementarity'
p34
aS'cdm_projects'
p35
aS'leakage'
p36
aS'cdm'
p37
aS'non-renewable_biomass'
p38
aS'cost_effectiveness'
p39
aS'distribution_of_cdm_projects'
p40
aS'impact_assessments'
p41
aS'cers'
p42
aS'expert_review'
p43
aS'trigger'
p44
aS'facilitative_branch'
p45
aS'enforcement'
p46
aS'compliance_system'
p47
aS'traditional_knowledge'
p48
aS'climate_justice'
p49
aS'poverty_eradication'
p50
aS'food'
p51
aS'gender'
p52
aS'ecosystem'
p53
aS'loss_and_damage'
p54
aS'agriculture'
p55
aS'health'
p56
aS'water'
p57
aS'poverty'
p58
aS'human_rights'
p59
aS'food_security'
p60
aS'sustainable_development'
p61
aS'indigenous_peoples'
p62
aS'women'
p63
aS'climate_change_impacts'
p64
aS'local_communities'
p65
aS'water_resources'
p66
aS'development'
p67
aS'financial_flows'
p68
aS'local_governments'
p69
aS'ocean'
p70
aS'ch4'
p71
aS'n2o'
p72
aS'ozone'
p73
aS'new_commitment'
p74
aS'gas-by-gas'
p75
aS'reducing_emissions'
p76
aS'bubble'
p77
aS'1990_levels'
p78
aS'emissions_inventories'
p79
aS'greenhouse_gas_emissions'
p80
aS'hydrofluorocarbons'
p81
aS'all_gases'
p82
aS'sulphur_hexafluoride'
p83
aS'gwp'
p84
aS'commitments_for_non-annex_i'
p85
aS'perfluorocarbons'
p86
aS'dangerous_anthropogenic_interference'
p87
aS'gas'
p88
aS'co2'
p89
aS'montreal_protocol'
p90
aS'nitrous_oxide'
p91
aS'emission'
p92
aS'differentiated_responsibilities'
p93
aS'hfcs'
p94
aS'future_commitments'
p95
aS'surplus_assigned_amount_units'
p96
aS'length_of_the_commitment_period'
p97
aS'economies_in_transition'
p98
aS'reference_levels'
p99
aS'berlin_mandate'
p100
aS'emissions_trading'
p101
aS'durban_platform'
p102
aS'qelros'
p103
aS'gap_between_commitment_periods'
p104
aS'flexibility_mechanisms'
p105
aS'flexibility'
p106
aS'base_year'
p107
aS'assigned_amount_units'
p108
aS'kyoto_protocol'
p109
aS'eit'
p110
aS'second_commitment_period'
p111
aS'pledges_into_qelros'
p112
aS'emissions_trading_system'
p113
aS'binding_commitments'
p114
aS'accounting_rules'
p115
aS'definition_of_forest'
p116
aS'sustainable_forest_management'
p117
aS'forest_conservation'
p118
aS'development_strategies'
p119
aS'reforestation'
p120
aS'biome'
p121
aS'sink'
p122
aS'land-use_change'
p123
aS'biodiversity'
p124
aS'forest_management'
p125
aS'afforestation'
p126
aS'desertification'
p127
aS'small-scale_afforestation_and_reforestation'
p128
aS'harvested_wood_products'
p129
aS'option_c'
p130
aS'additional_activities'
p131
aS'land_use'
p132
aS'forestry'
p133
aS'forest'
p134
aS'lulucf'
p135
aS'carbon_stocks'
p136
aS'social_costs'
p137
aS'spm'
p138
aS'carbon_tax'
p139
aS'precipitation'
p140
aS'emissions_scenarios'
p141
aS'350_ppm'
p142
aS'inaction'
p143
aS'mitigation_options'
p144
aS'stabilization'
p145
aS'global_climate_observing_system'
p146
aS'uncertainties'
p147
aS'scientific_uncertainty'
p148
aS'intergovernmental_panel_on_climate_change'
p149
aS'observing_systems'
p150
aS'sea_level_rise'
p151
aS'models'
p152
aS'greenhouse_gas_concentrations'
p153
aS'adaptive_capacity'
p154
aS'ipcc_third/fourth_assessment_report'
p155
aS'adaptation_options'
p156
aS'political_will'
p157
aS'bali_action_plan'
p158
aS'building_blocks'
p159
aS'non-market_approaches'
p160
aS'sectoral_approaches'
p161
aS'market_mechanisms'
p162
aS'climate_finance'
p163
aS'gcf'
p164
aS'historical_responsibility'
p165
aS'methodological_guidance'
p166
aS'fast-start_financing'
p167
aS'redd'
p168
aS'cooperative_action'
p169
aS'market_approaches'
p170
aS'redd+'
p171
aS'long-term_cooperation'
p172
aS'shared_vision'
p173
aS'namas'
p174
aS'mrv'
p175
aS'ica'
p176
aS'mitigation_actions'
p177
aS'post-2012'
p178
aS'forest_degradation'
p179
aS'performance_indicators'
p180
aS'carbon_sequestration'
p181
aS'renewable_energy'
p182
aS'energy'
p183
aS'investment'
p184
aS'innovation'
p185
aS'business'
p186
aS'intellectual_property_rights'
p187
aS'industry'
p188
aS'enabling_environment'
p189
aS'international_cooperation'
p190
aS'technology_fund'
p191
aS'know-how'
p192
aS'energy_efficiency'
p193
aS'technology_transfer_mechanism'
p194
aS'environmentally-sound_technology'
p195
aS'south-south'
p196
aS'technology'
p197
aS'research_and_development'
p198
aS'technology_development'
p199
aS'private_sector'
p200
aS'technology_transfer'
p201
aS'public-private'
p202
aS'fuel'
p203
aS'maritime'
p204
aS'international_aviation'
p205
aS'transport'
p206
aS'maritime_transport'
p207
aS'fossil_fuels'
p208
aS'transportation'
p209
aS'bunker_fuels'
p210
aS'energy_security'
p211
aS'international_transaction_log'
p212
aS'buenos_aires_programme_of_work'
p213
aS'adaptation_technologies'
p214
aS'vulnerable'
p215
aS'small_island'
p216
aS'privileges_and_immunities'
p217
aS'long-term_action'
p218
aS'extreme_event'
p219
aS'vulnerable_countries'
p220
aS'most_vulnerable'
p221
aS'nairobi_work_programme'
p222
aS'adaptation_work_programme'
p223
aS'article_9'
p224
aS'vulnerability_and_adaptation'
p225
aS'adaptation_actions'
p226
aS'adaptation_and_response_measures'
p227
aS'mitigation_and_adaptation'
p228
a.