(dp0
S'redd_and_post-kyoto'
p1
(lp2
S'bali_action_plan'
p3
aS'building_blocks'
p4
aS'non-market_approaches'
p5
aS'sectoral_approaches'
p6
aS'market_mechanisms'
p7
aS'climate_finance'
p8
aS'gcf'
p9
aS'historical_responsibility'
p10
aS'methodological_guidance'
p11
aS'fast-start_financing'
p12
aS'redd'
p13
aS'cooperative_action'
p14
aS'market_approaches'
p15
aS'redd+'
p16
aS'long-term_cooperation'
p17
aS'shared_vision'
p18
aS'namas'
p19
aS'mrv'
p20
aS'ica'
p21
aS'mitigation_actions'
p22
aS'post-2012'
p23
aS'forest_degradation'
p24
asS'transport_sector'
p25
(lp26
S'fuel'
p27
aS'maritime'
p28
aS'international_aviation'
p29
aS'transport'
p30
aS'maritime_transport'
p31
aS'fossil_fuels'
p32
aS'transportation'
p33
aS'bunker_fuels'
p34
aS'energy_security'
p35
asS'kyoto_protocol'
p36
(lp37
S'future_commitments'
p38
aS'surplus_assigned_amount_units'
p39
aS'length_of_the_commitment_period'
p40
aS'economies_in_transition'
p41
aS'reference_levels'
p42
aS'berlin_mandate'
p43
aS'emissions_trading'
p44
aS'durban_platform'
p45
aS'qelros'
p46
aS'gap_between_commitment_periods'
p47
aS'flexibility_mechanisms'
p48
aS'flexibility'
p49
aS'base_year'
p50
aS'assigned_amount_units'
p51
aS'kyoto_protocol'
p52
aS'eit'
p53
aS'second_commitment_period'
p54
aS'pledges_into_qelros'
p55
aS'emissions_trading_system'
p56
aS'binding_commitments'
p57
aS'accounting_rules'
p58
asS'technology_transfer_and_energy'
p59
(lp60
S'performance_indicators'
p61
aS'carbon_sequestration'
p62
aS'renewable_energy'
p63
aS'energy'
p64
aS'investment'
p65
aS'innovation'
p66
aS'business'
p67
aS'intellectual_property_rights'
p68
aS'industry'
p69
aS'enabling_environment'
p70
aS'international_cooperation'
p71
aS'technology_fund'
p72
aS'know-how'
p73
aS'energy_efficiency'
p74
aS'technology_transfer_mechanism'
p75
aS'environmentally-sound_technology'
p76
aS'south-south'
p77
aS'technology'
p78
aS'research_and_development'
p79
aS'technology_development'
p80
aS'private_sector'
p81
aS'technology_transfer'
p82
aS'public-private'
p83
asS'models_and_ipcc'
p84
(lp85
S'social_costs'
p86
aS'spm'
p87
aS'carbon_tax'
p88
aS'precipitation'
p89
aS'emissions_scenarios'
p90
aS'350_ppm'
p91
aS'inaction'
p92
aS'mitigation_options'
p93
aS'stabilization'
p94
aS'global_climate_observing_system'
p95
aS'uncertainties'
p96
aS'scientific_uncertainty'
p97
aS'intergovernmental_panel_on_climate_change'
p98
aS'observing_systems'
p99
aS'sea_level_rise'
p100
aS'models'
p101
aS'greenhouse_gas_concentrations'
p102
aS'adaptive_capacity'
p103
aS'ipcc_third/fourth_assessment_report'
p104
aS'adaptation_options'
p105
aS'political_will'
p106
asS'environmental_and_social_impacts'
p107
(lp108
S'traditional_knowledge'
p109
aS'climate_justice'
p110
aS'poverty_eradication'
p111
aS'food'
p112
aS'gender'
p113
aS'ecosystem'
p114
aS'loss_and_damage'
p115
aS'agriculture'
p116
aS'health'
p117
aS'water'
p118
aS'poverty'
p119
aS'human_rights'
p120
aS'food_security'
p121
aS'sustainable_development'
p122
aS'indigenous_peoples'
p123
aS'women'
p124
aS'climate_change_impacts'
p125
aS'local_communities'
p126
aS'water_resources'
p127
aS'development'
p128
aS'financial_flows'
p129
aS'local_governments'
p130
aS'ocean'
p131
asS'cdm_and_carbon_offsets'
p132
(lp133
S'prompt_start'
p134
aS'additionality'
p135
aS'baselines'
p136
aS'equitable_geographic_distribution'
p137
aS'biomass'
p138
aS'nuclear'
p139
aS'cer'
p140
aS'domestic_action'
p141
aS'supplementarity'
p142
aS'cdm_projects'
p143
aS'leakage'
p144
aS'cdm'
p145
aS'non-renewable_biomass'
p146
aS'cost_effectiveness'
p147
aS'distribution_of_cdm_projects'
p148
aS'impact_assessments'
p149
aS'cers'
p150
asS'compliance_and_enforcement'
p151
(lp152
S'expert_review'
p153
aS'trigger'
p154
aS'facilitative_branch'
p155
aS'enforcement'
p156
aS'compliance_system'
p157
asS'vulnerability_and_adaptation_actions'
p158
(lp159
S'international_transaction_log'
p160
aS'buenos_aires_programme_of_work'
p161
aS'adaptation_technologies'
p162
aS'vulnerable'
p163
aS'small_island'
p164
aS'privileges_and_immunities'
p165
aS'long-term_action'
p166
aS'extreme_event'
p167
aS'vulnerable_countries'
p168
aS'most_vulnerable'
p169
aS'nairobi_work_programme'
p170
aS'adaptation_work_programme'
p171
aS'article_9'
p172
aS'vulnerability_and_adaptation'
p173
aS'adaptation_actions'
p174
aS'adaptation_and_response_measures'
p175
aS'mitigation_and_adaptation'
p176
asS'land_use_and_forests'
p177
(lp178
S'definition_of_forest'
p179
aS'sustainable_forest_management'
p180
aS'forest_conservation'
p181
aS'development_strategies'
p182
aS'reforestation'
p183
aS'biome'
p184
aS'sink'
p185
aS'land-use_change'
p186
aS'biodiversity'
p187
aS'forest_management'
p188
aS'afforestation'
p189
aS'desertification'
p190
aS'small-scale_afforestation_and_reforestation'
p191
aS'harvested_wood_products'
p192
aS'option_c'
p193
aS'additional_activities'
p194
aS'land_use'
p195
aS'forestry'
p196
aS'forest'
p197
aS'lulucf'
p198
aS'carbon_stocks'
p199
asS'adaptation_funding_and_equity'
p200
(lp201
S'special_climate_change_fund'
p202
aS'non-annex_i_national_communications'
p203
aS'operating_entity'
p204
aS'annex_i_national_communications'
p205
aS'napa'
p206
aS'adaptation_fund'
p207
aS'gef'
p208
aS'financial_mechanism'
p209
aS'funding'
p210
aS'new_technologies'
p211
aS'ldcs'
p212
aS'lcd_expert_group'
p213
aS'full_costs'
p214
aS'sccf'
p215
aS'ldc_fund'
p216
aS'financial_resources'
p217
aS'adaptation_needs'
p218
aS'policies_and_measures'
p219
aS'financing_adaptation'
p220
aS'importance_of_adaptation'
p221
aS'national_adaptation_programmes_of_action'
p222
aS'education'
p223
aS'adverse_effect_policy'
p224
aS'lack_of_progress'
p225
aS'adverse_effects/impacts'
p226
asS'ghg_and_emissions_measure'
p227
(lp228
S'ch4'
p229
aS'n2o'
p230
aS'ozone'
p231
aS'new_commitment'
p232
aS'gas-by-gas'
p233
aS'reducing_emissions'
p234
aS'bubble'
p235
aS'1990_levels'
p236
aS'emissions_inventories'
p237
aS'greenhouse_gas_emissions'
p238
aS'hydrofluorocarbons'
p239
aS'all_gases'
p240
aS'sulphur_hexafluoride'
p241
aS'gwp'
p242
aS'commitments_for_non-annex_i'
p243
aS'perfluorocarbons'
p244
aS'dangerous_anthropogenic_interference'
p245
aS'gas'
p246
aS'co2'
p247
aS'montreal_protocol'
p248
aS'nitrous_oxide'
p249
aS'emission'
p250
aS'differentiated_responsibilities'
p251
aS'hfcs'
p252
as.